(dp0
S'foul'
p1
I4992
sS'four'
p2
I688
sS'woods'
p3
I1556
sS"friend's"
p4
I5703
sS'hanging'
p5
I2434
sS'woody'
p6
I2926
sS'originality'
p7
I2699
sS'lord'
p8
I1745
sS'immature'
p9
I5976
sS'yellow'
p10
I4072
sS'screaming'
p11
I1997
sS'prize'
p12
I4794
sS'wooden'
p13
I1605
sS'stereotypical'
p14
I2549
sS'commented'
p15
I3994
sS'specially'
p16
I5233
sS'tired'
p17
I1395
sS'miller'
p18
I2974
sS'elegant'
p19
I4491
sS'second'
p20
I341
sS'admire'
p21
I3354
sS'errors'
p22
I3892
sS'dialogs'
p23
I3261
sS'ruthless'
p24
I4067
sS'fingers'
p25
I4074
sS'hero'
p26
I649
sS'reporter'
p27
I2566
sS'here'
p28
I136
sS'china'
p29
I2583
sS'cult'
p30
I1272
sS'kids'
p31
I342
sS'uplifting'
p32
I4899
sS'elaborate'
p33
I3969
sS"i'd"
p34
I491
sS'military'
p35
I1306
sS"i'm"
p36
I152
sS'criticism'
p37
I2736
sS'golden'
p38
I1799
sS'explained'
p39
I1827
sS'replace'
p40
I5004
sS'brought'
p41
I810
sS'unit'
p42
I4571
sS'cheating'
p43
I4215
sS'spoke'
p44
I4690
sS'catchy'
p45
I4931
sS'cannibal'
p46
I4495
sS'music'
p47
I208
sS'therefore'
p48
I1498
sS'strike'
p49
I3807
sS'until'
p50
I358
sS'playboy'
p51
I5573
sS'females'
p52
I5107
sS'holy'
p53
I3960
sS'relax'
p54
I5424
sS'successful'
p55
I1115
sS'brings'
p56
I957
sS'hurt'
p57
I1399
sS'glass'
p58
I2941
sS'90'
p59
I1791
sS'hole'
p60
I2762
sS'hold'
p61
I1054
sS'circumstances'
p62
I2217
sS'morally'
p63
I5846
sS'locked'
p64
I3326
sS'blade'
p65
I3300
sS'concepts'
p66
I5157
sS'example'
p67
I465
sS'household'
p68
I4972
sS'want'
p69
I180
sS'absolute'
p70
I1535
sS'complaining'
p71
I4787
sS'travel'
p72
I2052
sS'feature'
p73
I814
sS'comedians'
p74
I4884
sS'machine'
p75
I1534
sS'how'
p76
I89
sS'hot'
p77
I905
sS'significance'
p78
I5275
sS'disgrace'
p79
I5923
sS'beauty'
p80
I890
sS'dinosaurs'
p81
I3782
sS'wrong'
p82
I355
sS'types'
p83
I2131
sS'effective'
p84
I1144
sS'wins'
p85
I2720
sS'fictional'
p86
I2928
sS'keeps'
p87
I923
sS'nonsensical'
p88
I5117
sS'wing'
p89
I4123
sS'wind'
p90
I1803
sS'wine'
p91
I4137
sS'fit'
p92
I1091
sS'bringing'
p93
I2125
sS'fix'
p94
I4277
sS'striking'
p95
I3281
sS'survivors'
p96
I4308
sS'hidden'
p97
I1670
sS'admirable'
p98
I5821
sS'easier'
p99
I3359
sS'effects'
p100
I288
sS'schools'
p101
I5482
sS'silver'
p102
I3196
sS'represents'
p103
I3616
sS'debut'
p104
I2020
sS'financial'
p105
I4203
sS'snakes'
p106
I3109
sS'series'
p107
I213
sS"we'd"
p108
I5531
sS'ring'
p109
I1768
sS'drove'
p110
I5359
sS'mason'
p111
I4813
sS'encourage'
p112
I5200
sS'dracula'
p113
I2680
sS'necessarily'
p114
I2672
sS'overacting'
p115
I4680
sS'enormous'
p116
I4028
sS'bates'
p117
I3902
sS'heading'
p118
I4853
sS'musicians'
p119
I4789
sS"today's"
p120
I1908
sS'1970s'
p121
I3376
sS'subtlety'
p122
I3920
sS'visited'
p123
I5780
sS'channels'
p124
I4417
sS'sutherland'
p125
I3157
sS'basketball'
p126
I5645
sS'service'
p127
I2325
sS'similarly'
p128
I4099
sS'needed'
p129
I869
sS'master'
p130
I1172
sS'listed'
p131
I3764
sS'legs'
p132
I3086
sS'bitter'
p133
I3104
sS'listen'
p134
I1603
sS'danish'
p135
I5711
sS'wisdom'
p136
I4850
sS'predictable'
p137
I708
sS'positively'
p138
I5209
sS'trek'
p139
I2146
sS'showed'
p140
I1168
sS'tree'
p141
I2857
sS'rusty'
p142
I5782
sS'project'
p143
I1111
sS'sheen'
p144
I4601
sS'feeling'
p145
I548
sS'runner'
p146
I4669
sS'craven'
p147
I5936
sS'corny'
p148
I2045
sS'dozen'
p149
I2706
sS'affairs'
p150
I4761
sS'responsible'
p151
I1789
sS'recommended'
p152
I1108
sS'causing'
p153
I3640
sS'amusing'
p154
I1118
sS'doors'
p155
I3447
sS'shall'
p156
I3301
sS'thrilled'
p157
I5754
sS'object'
p158
I3122
sS'cinematic'
p159
I1259
sS'victoria'
p160
I3334
sS'disjointed'
p161
I3759
sS'hit-man'
p162
I5420
sS'mouth'
p163
I1692
sS'addict'
p164
I5715
sS'letter'
p165
I2950
sS'thriller'
p166
I759
sS'morality'
p167
I3823
sS'singer'
p168
I1900
sS'episode'
p169
I395
sS'released'
p170
I610
sS'professor'
p171
I2391
sS'camp'
p172
I1217
sS'scream'
p173
I1982
sS'came'
p174
I378
sS'marvel'
p175
I5783
sS'saying'
p176
I613
sS'bomb'
p177
I2105
sS'bonnie'
p178
I5853
sS'nominated'
p179
I2377
sS'tempted'
p180
I5762
sS'lessons'
p181
I2988
sS'orleans'
p182
I5650
sS'touches'
p183
I2477
sS'busy'
p184
I3190
sS'than'
p185
I76
sS'theme'
p186
I756
sS'touched'
p187
I2811
sS'rich'
p188
I984
sS'godzilla'
p189
I5182
sS'altogether'
p190
I3454
sS'nicely'
p191
I1733
sS'release'
p192
I758
sS'blew'
p193
I4272
sS'disaster'
p194
I1553
sS'fair'
p195
I1202
sS'unexpectedly'
p196
I5291
sS'result'
p197
I925
sS'erika'
p198
I5510
sS'fail'
p199
I1873
sS'hammer'
p200
I3866
sS'best'
p201
I120
sS'moron'
p202
I5942
sS'lots'
p203
I723
sS'rings'
p204
I2824
sS'score'
p205
I559
sS'men'
p206
I345
sS'nature'
p207
I910
sS'rolled'
p208
I4595
sS"/>i'm"
p209
I1984
sS'extent'
p210
I2841
sS'pity'
p211
I2254
sS'accident'
p212
I1616
sS'country'
p213
I682
sS'adventures'
p214
I2472
sS'edgar'
p215
I4361
sS'planned'
p216
I4024
sS'logic'
p217
I2071
sS'argue'
p218
I3477
sS'adapted'
p219
I3181
sS'asked'
p220
I1631
sS'vain'
p221
I5834
sS'2nd'
p222
I4031
sS'hers'
p223
I5619
sS'blonde'
p224
I2236
sS'cardboard'
p225
I3324
sS'source'
p226
I2272
sS'union'
p227
I2979
sS'much'
p228
I77
sS'jackass'
p229
I5313
sS'incompetent'
p230
I4567
sS'life'
p231
I124
sS'eastern'
p232
I4446
sS'worker'
p233
I4891
sS'filmmaker'
p234
I1809
sS'dave'
p235
I3029
sS'substance'
p236
I2350
sS'child'
p237
I550
sS'worked'
p238
I937
sS'spin'
p239
I3878
sS'gritty'
p240
I2558
sS'adaptations'
p241
I4765
sS'ridiculously'
p242
I3772
sS'played'
p243
I254
sS'player'
p244
I1823
sS'madonna'
p245
I4279
sS'hong'
p246
I2831
sS'hokey'
p247
I4897
sS'things'
p248
I177
sS'format'
p249
I2821
sS'split'
p250
I3531
sS'babies'
p251
I5268
sS'european'
p252
I1957
sS'fairly'
p253
I967
sS'tops'
p254
I5454
sS'preachy'
p255
I5364
sS'tune'
p256
I3023
sS"someone's"
p257
I4470
sS'lucas'
p258
I4096
sS'corporate'
p259
I4762
sS'technicolor'
p260
I5625
sS'opinions'
p261
I3942
sS'appropriately'
p262
I5148
sS'disguise'
p263
I5747
sS'plight'
p264
I4961
sS'portrayed'
p265
I974
sS'previous'
p266
I909
sS'enters'
p267
I3647
sS'hal'
p268
I3493
sS'ham'
p269
I5807
sS'ease'
p270
I4440
sS'had'
p271
I70
sS'emphasis'
p272
I4225
sS'easy'
p273
I763
sS'prison'
p274
I1197
sS'has'
p275
I48
sS'hat'
p276
I2623
sS'survival'
p277
I3669
sS'possible'
p278
I628
sS'possibly'
p279
I864
sS'birth'
p280
I2695
sS'shadow'
p281
I2764
sS'unique'
p282
I940
sS'desire'
p283
I1895
sS'psychological'
p284
I1954
sS'bobby'
p285
I3158
sS'alice'
p286
I2211
sS'remind'
p287
I3128
sS'steps'
p288
I2965
sS'attorney'
p289
I5511
sS'right'
p290
I206
sS'old'
p291
I173
sS'crowd'
p292
I2031
sS'people'
p293
I87
sS'creep'
p294
I5716
sS'enemies'
p295
I4109
sS'for'
p296
I20
sS'bottom'
p297
I1331
sS'fox'
p298
I1701
sS'creative'
p299
I1491
sS'witty'
p300
I1860
sS'continue'
p301
I1626
sS'exposition'
p302
I5165
sS'starring'
p303
I1216
sS'losing'
p304
I2257
sS'memorable'
p305
I873
sS'dollars'
p306
I2176
sS'citizens'
p307
I4454
sS'o'
p308
I2778
sS'despair'
p309
I4461
sS'lacked'
p310
I3202
sS'slightly'
p311
I1056
sS'raised'
p312
I2648
sS'marshall'
p313
I4821
sS'son'
p314
I508
sS'respectable'
p315
I5540
sS'beings'
p316
I3249
sS'raises'
p317
I4885
sS'wrap'
p318
I5743
sS'shoots'
p319
I3231
sS'support'
p320
I1406
sS'constantly'
p321
I1288
sS'tame'
p322
I4157
sS'absolutely'
p323
I414
sS'joseph'
p324
I2403
sS"boy's"
p325
I5744
sS'greatness'
p326
I4673
sS'jane'
p327
I1152
sS'happy'
p328
I680
sS'offer'
p329
I1415
sS'fascination'
p330
I5324
sS'talents'
p331
I1965
sS'understandable'
p332
I4510
sS'silliness'
p333
I5241
sS"else's"
p334
I5847
sS'inside'
p335
I919
sS'devices'
p336
I5445
sS'<unk>'
p337
I1
sS'juvenile'
p338
I3810
sS'later'
p339
I304
sS'liberal'
p340
I3952
sS'barrymore'
p341
I5316
sS'proves'
p342
I1604
sS'exist'
p343
I1845
sS'dealer'
p344
I5684
sS'eventual'
p345
I5898
sS'floor'
p346
I1830
sS'actor'
p347
I298
sS'role'
p348
I218
sS'ambitious'
p349
I3385
sS'roll'
p350
I1841
sS'models'
p351
I4039
sS'intent'
p352
I3517
sS'rolling'
p353
I2755
sS'explosions'
p354
I3455
sS'time'
p355
I61
sS'push'
p356
I3371
sS':)'
p357
I2548
sS'chain'
p358
I3848
sS'whoever'
p359
I2545
sS'reviewers'
p360
I2013
sS"film's"
p361
I614
sS'crocodile'
p362
I5183
sS'theaters'
p363
I2126
sS'jarring'
p364
I5835
sS'chair'
p365
I2998
sS'muppet'
p366
I4976
sS'venice'
p367
I4823
sS'uneven'
p368
I4374
sS'macho'
p369
I5723
sS'over-the-top'
p370
I2496
sS'jerk'
p371
I3321
sS'choice'
p372
I1093
sS'stays'
p373
I2789
sS'exact'
p374
I2492
sS'minute'
p375
I882
sS'tear'
p376
I4017
sS'cameo'
p377
I2067
sS'leave'
p378
I553
sS'settle'
p379
I4639
sS'team'
p380
I729
sS'loads'
p381
I4143
sS'unaware'
p382
I5127
sS'prevent'
p383
I3651
sS'spiritual'
p384
I3689
sS'sign'
p385
I1989
sS'erotic'
p386
I2681
sS'current'
p387
I1852
sS'freaks'
p388
I5515
sS'falling'
p389
I1469
sS'ground'
p390
I1548
sS'unintentionally'
p391
I3428
sS'funeral'
p392
I3683
sS'understanding'
p393
I1714
sS'address'
p394
I5293
sS'alone'
p395
I611
sS'along'
p396
I336
sS'passengers'
p397
I5144
sS'redemption'
p398
I3290
sS'brilliant'
p399
I509
sS'cusack'
p400
I4302
sS'accomplished'
p401
I3621
sS'myers'
p402
I4162
sS'studies'
p403
I5848
sS'love'
p404
I115
sS'br'
p405
I9
sS'prefer'
p406
I2574
sS'logical'
p407
I3755
sS'bloody'
p408
I1662
sS'marvelous'
p409
I3066
sS'fake'
p410
I1156
sS'working'
p411
I784
sS'positive'
p412
I1142
sS'angry'
p413
I1580
sS'opposed'
p414
I3262
sS'wondering'
p415
I1496
sS'films'
p416
I108
sS'scope'
p417
I4573
sS'loving'
p418
I1854
sS'afford'
p419
I4036
sS'apparent'
p420
I1734
sS'visual'
p421
I1057
sS'everywhere'
p422
I2448
sS'anything'
p423
I234
sS'originally'
p424
I1868
sS'pretend'
p425
I3934
sS'believes'
p426
I2173
sS'values'
p427
I1165
sS'believed'
p428
I2382
sS'awesome'
p429
I1143
sS'allowed'
p430
I1524
sS'stole'
p431
I3412
sS'evidently'
p432
I5858
sS'winter'
p433
I3881
sS'deserves'
p434
I988
sS'elephant'
p435
I4691
sS'explores'
p436
I5360
sS'custer'
p437
I4902
sS'spot'
p438
I1566
sS'convincingly'
p439
I4247
sS'explored'
p440
I4187
sS'matt'
p441
I2213
sS'date'
p442
I1310
sS'such'
p443
I142
sS'suck'
p444
I2704
sS'revealed'
p445
I1917
sS'stress'
p446
I4879
sS'surfing'
p447
I5014
sS'natural'
p448
I1284
sS'so'
p449
I40
sS'pulled'
p450
I1926
sS'drunken'
p451
I3838
sS'differences'
p452
I3855
sS'years'
p453
I157
sS'course'
p454
I264
sS'episodes'
p455
I691
sS'experiments'
p456
I4886
sS'lackluster'
p457
I5197
sS'jim'
p458
I1235
sS'troubles'
p459
I5029
sS'sixties'
p460
I4824
sS'attraction'
p461
I3160
sS'suspension'
p462
I5554
sS'troubled'
p463
I3123
sS'decades'
p464
I2696
sS'abusive'
p465
I5061
sS'instantly'
p466
I3101
sS'matches'
p467
I4434
sS'nation'
p468
I3205
sS'records'
p469
I5542
sS'compelled'
p470
I4920
sS'twilight'
p471
I4662
sS'matched'
p472
I5611
sS'square'
p473
I4574
sS'beloved'
p474
I2805
sS'entering'
p475
I5924
sS'sexually'
p476
I3502
sS'contained'
p477
I4404
sS'investigation'
p478
I3377
sS'internet'
p479
I2859
sS'formula'
p480
I2148
sS'million'
p481
I1460
sS'possibility'
p482
I3735
sS'quite'
p483
I181
sS'complicated'
p484
I2730
sS'besides'
p485
I1336
sS'training'
p486
I2386
sS'punk'
p487
I3927
sS'modest'
p488
I5472
sS'gordon'
p489
I2402
sS'emotion'
p490
I1394
sS'saving'
p491
I1880
sS'reveals'
p492
I2694
sS'spoken'
p493
I3120
sS'one'
p494
I32
sS'spanish'
p495
I1975
sS'vote'
p496
I2019
sS'open'
p497
I886
sS'ripping'
p498
I5742
sS'city'
p499
I536
sS'bite'
p500
I4407
sS'2'
p501
I297
sS'bits'
p502
I1645
sS'williams'
p503
I1712
sS'slasher'
p504
I1282
sS'proving'
p505
I5922
sS'ridiculous'
p506
I639
sS'fooled'
p507
I4226
sS'boyfriend'
p508
I1396
sS'depressed'
p509
I4082
sS'rival'
p510
I3053
sS'non-stop'
p511
I5201
sS'future'
p512
I715
sS'wandering'
p513
I4613
sS'damned'
p514
I4775
sS'illness'
p515
I4469
sS'san'
p516
I2977
sS'sam'
p517
I1261
sS'generation'
p518
I1864
sS'turned'
p519
I671
sS'argument'
p520
I3738
sS'alley'
p521
I5977
sS'sad'
p522
I622
sS'tastes'
p523
I4851
sS'buried'
p524
I3592
sS'allen'
p525
I2055
sS'turner'
p526
I4201
sS'saw'
p527
I209
sS'sat'
p528
I1723
sS'warriors'
p529
I5030
sS'aside'
p530
I1151
sS'note'
p531
I883
sS'take'
p532
I192
sS'wanting'
p533
I1637
sS'towers'
p534
I5947
sS'ironically'
p535
I3537
sS'altered'
p536
I5887
sS'opposite'
p537
I1754
sS'knew'
p538
I662
sS'remarks'
p539
I5179
sS'pages'
p540
I5159
sS'damage'
p541
I4035
sS'montage'
p542
I4112
sS'average'
p543
I859
sS'phil'
p544
I4496
sS'drive'
p545
I1516
sS'backdrop'
p546
I3461
sS'laws'
p547
I5646
sS'walking'
p548
I1312
sS'merit'
p549
I3597
sS'bright'
p550
I1896
sS'inconsistent'
p551
I5438
sS'imagined'
p552
I4085
sS'slow'
p553
I618
sS'tears'
p554
I1669
sS'going'
p555
I167
sS'psychiatrist'
p556
I4251
sS'assistant'
p557
I2858
sS'simplistic'
p558
I4047
sS'prime'
p559
I2491
sS'settings'
p560
I2910
sS'worried'
p561
I3725
sS'priest'
p562
I1961
sS'roger'
p563
I2412
sS"could've"
p564
I2750
sS'bombs'
p565
I5748
sS'where'
p566
I119
sS'vision'
p567
I1773
sS'gangster'
p568
I2138
sS'anyways'
p569
I3571
sS'surgery'
p570
I5479
sS'no-one'
p571
I4888
sS'planet'
p572
I1280
sS'harvey'
p573
I4548
sS'teens'
p574
I2340
sS'jobs'
p575
I2776
sS'uk'
p576
I2370
sS'screen'
p577
I279
sS'awards'
p578
I2229
sS'menacing'
p579
I3773
sS'spark'
p580
I5180
sS'many'
p581
I109
sS'cagney'
p582
I4626
sS's'
p583
I1747
sS'expression'
p584
I2637
sS"can't"
p585
I188
sS'twin'
p586
I3824
sS'3000'
p587
I4928
sS'boat'
p588
I1779
sS'caring'
p589
I2909
sS'stretch'
p590
I3297
sS'west'
p591
I1227
sS'vacation'
p592
I2798
sS'breath'
p593
I2938
sS'showtime'
p594
I5785
sS'combined'
p595
I2631
sS'motives'
p596
I3970
sS'crawford'
p597
I5052
sS'hilarity'
p598
I5528
sS'wants'
p599
I484
sS"actor's"
p600
I5234
sS'influence'
p601
I2342
sS'thousand'
p602
I3125
sS'photos'
p603
I5015
sS'former'
p604
I1095
sS'hayes'
p605
I5838
sS'newspaper'
p606
I3939
sS'situation'
p607
I849
sS'unlikeable'
p608
I5409
sS'twists'
p609
I1230
sS'engaged'
p610
I3459
sS'bros'
p611
I5888
sS'blah'
p612
I2652
sS'technology'
p613
I2276
sS'fame'
p614
I1991
sS'threatens'
p615
I5485
sS'damon'
p616
I5729
sS'visually'
p617
I2090
sS'harris'
p618
I2310
sS'tracking'
p619
I5031
sS'pacino'
p620
I3318
sS'pacing'
p621
I1739
sS'costs'
p622
I2174
sS'dimension'
p623
I4831
sS'summer'
p624
I1463
sS'being'
p625
I113
sS'rest'
p626
I362
sS'recycled'
p627
I5393
sS'aspects'
p628
I1382
sS'around'
p629
I183
sS'sums'
p630
I5473
sS'dark'
p631
I456
sS'traffic'
p632
I4847
sS'darn'
p633
I5430
sS'world'
p634
I187
sS'vague'
p635
I3540
sS'dare'
p636
I3008
sS'meaning'
p637
I1175
sS'stranger'
p638
I2661
sS'beverly'
p639
I5414
sS'learning'
p640
I2809
sS'moreover'
p641
I4713
sS'racial'
p642
I3964
sS'divine'
p643
I5332
sS'thinks'
p644
I1219
sS'riveting'
p645
I4398
sS'memories'
p646
I1750
sS'refer'
p647
I5402
sS'destroys'
p648
I5591
sS'biased'
p649
I5311
sS'scientific'
p650
I3815
sS'power'
p651
I664
sS'intimate'
p652
I4452
sS'stone'
p653
I1905
sS'package'
p654
I4866
sS'industry'
p655
I1502
sS'favorite'
p656
I513
sS'meal'
p657
I5997
sS'neighbor'
p658
I3808
sS'masterpieces'
p659
I5208
sS'bond'
p660
I1371
sS'burning'
p661
I3492
sS'flawed'
p662
I2890
sS'image'
p663
I1412
sS'lively'
p664
I4967
sS'homeless'
p665
I4317
sS'parties'
p666
I4399
sS'portrayal'
p667
I1087
sS'technically'
p668
I2634
sS'legacy'
p669
I5462
sS'her'
p670
I44
sS'hey'
p671
I1305
sS'mindless'
p672
I2963
sS'2/10'
p673
I3610
sS'survives'
p674
I5755
sS'complete'
p675
I587
sS"child's"
p676
I5394
sS'survived'
p677
I4297
sS'fighter'
p678
I3936
sS'with'
p679
I19
sS'buying'
p680
I2700
sS'handsome'
p681
I2202
sS'abused'
p682
I5057
sS"they're"
p683
I497
sS'rush'
p684
I3188
sS'rage'
p685
I3906
sS'tripe'
p686
I4506
sS'taught'
p687
I4336
sS'dirty'
p688
I1595
sS'politically'
p689
I3943
sS'agree'
p690
I999
sS'darker'
p691
I4064
sS'detailed'
p692
I3557
sS'gone'
p693
I769
sS'ad'
p694
I3407
sS'johnny'
p695
I1764
sS'gratuitous'
p696
I2263
sS'certain'
p697
I746
sS'accents'
p698
I2429
sS'stealing'
p699
I2995
sS'am'
p700
I236
sS'al'
p701
I1758
sS'watches'
p702
I3469
sS'an'
p703
I36
sS'as'
p704
I18
sS'at'
p705
I33
sS'walks'
p706
I2237
sS'watched'
p707
I286
sS'amused'
p708
I5296
sS'cream'
p709
I4848
sS'tight'
p710
I2686
sS'incomprehensible'
p711
I4776
sS'2007'
p712
I4231
sS'forgettable'
p713
I2465
sS'accounts'
p714
I6000
sS'terry'
p715
I4163
sS'natalie'
p716
I4968
sS'tricks'
p717
I3283
sS'mask'
p718
I2302
sS'having'
p719
I262
sS'mass'
p720
I3349
sS'adam'
p721
I2050
sS'original'
p722
I212
sS'9/11'
p723
I5491
sS'9/10'
p724
I2839
sS'sci'
p725
I5708
sS'consider'
p726
I1141
sS'caused'
p727
I2223
sS'beware'
p728
I5041
sS'rourke'
p729
I5719
sS'causes'
p730
I2758
sS'hunting'
p731
I3425
sS'tv'
p732
I252
sS'to'
p733
I6
sS'tail'
p734
I5756
sS'dressing'
p735
I5814
sS'smile'
p736
I1811
sS'paying'
p737
I2663
sS'returned'
p738
I3603
sS'hughes'
p739
I5156
sS'documentaries'
p740
I3516
sS'condition'
p741
I3074
sS'cable'
p742
I1948
sS'heist'
p743
I3310
sS'joined'
p744
I4543
sS'large'
p745
I1021
sS'dinosaur'
p746
I4528
sS'sand'
p747
I5016
sS'harry'
p748
I1392
sS'small'
p749
I406
sS'maggie'
p750
I4929
sS'past'
p751
I502
sS'displays'
p752
I3573
sS'pass'
p753
I1319
sS'richard'
p754
I802
sS'section'
p755
I2515
sS'scientists'
p756
I3032
sS'nurse'
p757
I2577
sS'method'
p758
I4227
sS'contrast'
p759
I2166
sS'revealing'
p760
I3339
sS'full'
p761
I383
sS'portrays'
p762
I2199
sS'hours'
p763
I623
sS'legend'
p764
I1870
sS'experience'
p765
I549
sS'prior'
p766
I2514
sS'social'
p767
I1125
sS'action'
p768
I226
sS"would've"
p769
I2640
sS'murdering'
p770
I5259
sS'luck'
p771
I2091
sS'via'
p772
I2629
sS'followed'
p773
I1509
sS'pulls'
p774
I2529
sS'sub-par'
p775
I5891
sS'pearl'
p776
I4291
sS'gorgeous'
p777
I1497
sS'more'
p778
I55
sS'teen'
p779
I1523
sS'door'
p780
I1279
sS'portrayals'
p781
I5340
sS'company'
p782
I1068
sS'doom'
p783
I4699
sS'keeping'
p784
I1821
sS'pleasing'
p785
I5991
sS'science'
p786
I1110
sS'scarlett'
p787
I3827
sS'morgan'
p788
I2349
sS'learn'
p789
I830
sS'knocked'
p790
I5294
sS'male'
p791
I927
sS'beautiful'
p792
I309
sS'stated'
p793
I3446
sS'accept'
p794
I1668
sS'states'
p795
I1578
sS'sense'
p796
I282
sS'disliked'
p797
I4925
sS'dress'
p798
I2711
sS'information'
p799
I1482
sS'respective'
p800
I5512
sS'clint'
p801
I3345
sS'hugh'
p802
I4730
sS'thrills'
p803
I3533
sS'glowing'
p804
I5933
sS'disturbed'
p805
I3904
sS'scifi'
p806
I5694
sS'creature'
p807
I1586
sS'plant'
p808
I4220
sS'intended'
p809
I1334
sS'countryside'
p810
I4195
sS'soundtrack'
p811
I724
sS'plane'
p812
I1499
sS'director'
p813
I176
sS'waves'
p814
I4767
sS'authentic'
p815
I2930
sS'refuse'
p816
I5547
sS'imagery'
p817
I2638
sS'resemble'
p818
I5210
sS'mexican'
p819
I2593
sS'leigh'
p820
I5035
sS'trade'
p821
I3632
sS'attitude'
p822
I1981
sS'paper'
p823
I2307
sS'scott'
p824
I1135
sS'signs'
p825
I3753
sS'broadway'
p826
I2450
sS'smiling'
p827
I4792
sS'its'
p828
I94
sS'roots'
p829
I5066
sS'rapidly'
p830
I5739
sS'damme'
p831
I4511
sS'entire'
p832
I435
sS'olivia'
p833
I5524
sS"movie's"
p834
I1340
sS'subtitles'
p835
I2274
sS'sucked'
p836
I1973
sS'always'
p837
I211
sS'loosely'
p838
I3480
sS'found'
p839
I253
sS'shocking'
p840
I1540
sS'status'
p841
I2599
sS'england'
p842
I1914
sS'critters'
p843
I5551
sS"they've"
p844
I2124
sS'operation'
p845
I4586
sS'really'
p846
I66
sS'missed'
p847
I1032
sS'blacks'
p848
I4914
sS'****'
p849
I2043
sS'research'
p850
I2231
sS'misses'
p851
I3965
sS'occurs'
p852
I3506
sS'belief'
p853
I2508
sS'imagine'
p854
I794
sS'rises'
p855
I5570
sS'definition'
p856
I4955
sS'owners'
p857
I5699
sS'persons'
p858
I4640
sS"woman's"
p859
I3235
sS'w'
p860
I4370
sS'testament'
p861
I4832
sS'castle'
p862
I1939
sS'major'
p863
I650
sS'brutally'
p864
I4401
sS'it`s'
p865
I5937
sS'stage'
p866
I945
sS'guess'
p867
I464
sS'heads'
p868
I1774
sS'guest'
p869
I2822
sS'jet'
p870
I4517
sS'introduction'
p871
I2834
sS'threatening'
p872
I4026
sS'spock'
p873
I5465
sS'relationship'
p874
I626
sS'immediate'
p875
I5150
sS'appreciation'
p876
I4677
sS'focusing'
p877
I4185
sS'unrealistic'
p878
I2026
sS'grace'
p879
I1563
sS'determined'
p880
I2901
sS'marriage'
p881
I1462
sS'hyde'
p882
I5962
sS'ranch'
p883
I5856
sS'basically'
p884
I676
sS'fights'
p885
I1839
sS'blond'
p886
I4333
sS'sell'
p887
I2093
sS'odd'
p888
I1034
sS'self'
p889
I1368
sS'also'
p890
I85
sS'historic'
p891
I5730
sS'internal'
p892
I5839
sS'play'
p893
I296
sS'yawn'
p894
I5906
sS'brooklyn'
p895
I5136
sS'plan'
p896
I1296
sS'funnier'
p897
I2639
sS'understands'
p898
I5576
sS'sometimes'
p899
I523
sS'doubts'
p900
I5194
sS'artistic'
p901
I1598
sS'dragged'
p902
I3350
sS'ugh'
p903
I5555
sS'golf'
p904
I5260
sS'gold'
p905
I1724
sS'impact'
p906
I1531
sS'writes'
p907
I4385
sS'writer'
p908
I775
sS'failed'
p909
I1178
sS'wayne'
p910
I2248
sS'factor'
p911
I2305
sS'distance'
p912
I3721
sS'banned'
p913
I4534
sS'sunny'
p914
I5224
sS"they'd"
p915
I3331
sS'actress'
p916
I535
sS'closely'
p917
I3169
sS'frightening'
p918
I2559
sS'enemy'
p919
I2186
sS'cry'
p920
I1414
sS'obscure'
p921
I3794
sS'river'
p922
I1969
sS'insane'
p923
I1968
sS'set'
p924
I289
sS'creator'
p925
I5161
sS'sex'
p926
I388
sS'see'
p927
I68
sS'sea'
p928
I1642
sS'shower'
p929
I3270
sS'spirits'
p930
I4535
sS'unsettling'
p931
I4570
sS'movie'
p932
I21
sS'currently'
p933
I3646
sS'demons'
p934
I2396
sS'monsters'
p935
I1728
sS'rita'
p936
I4173
sS'endure'
p937
I4487
sS'europe'
p938
I2141
sS'incident'
p939
I3229
sS'leo'
p940
I5142
sS'improved'
p941
I3846
sS'barely'
p942
I1164
sS'connection'
p943
I1843
sS'retarded'
p944
I2855
sS'let'
p945
I374
sS'whole'
p946
I222
sS'load'
p947
I3769
sS'bell'
p948
I3774
sS'acted'
p949
I966
sS'community'
p950
I1778
sS'coincidence'
p951
I5011
sS'dimensional'
p952
I4589
sS'agents'
p953
I3903
sS'adaptation'
p954
I1274
sS'church'
p955
I1557
sS'far-fetched'
p956
I5855
sS'worthless'
p957
I3704
sS'devil'
p958
I2264
sS'filth'
p959
I5799
sS'acceptance'
p960
I5592
sS'satire'
p961
I2038
sS'hitting'
p962
I3624
sS'firm'
p963
I5068
sS'champion'
p964
I5271
sS'fire'
p965
I979
sS"what's"
p966
I804
sS'races'
p967
I5733
sS'awake'
p968
I4524
sS'handling'
p969
I5896
sS'errol'
p970
I5828
sS'straight'
p971
I803
sS'budget'
p972
I396
sS'hilariously'
p973
I4309
sS'technical'
p974
I1832
sS'kissing'
p975
I5389
sS'robin'
p976
I1892
sS'kingdom'
p977
I4875
sS'hoping'
p978
I1356
sS'von'
p979
I2900
sS'owen'
p980
I3993
sS'beautifully'
p981
I1248
sS'chase'
p982
I1264
sS'funny'
p983
I158
sS'barney'
p984
I4420
sS'shorter'
p985
I5552
sS'rules'
p986
I2153
sS'virtually'
p987
I2314
sS'co-star'
p988
I5538
sS'alert'
p989
I5615
sS'viewing'
p990
I796
sS'levels'
p991
I2008
sS'infamous'
p992
I3312
sS'recent'
p993
I1138
sS'amy'
p994
I4048
sS'picks'
p995
I2920
sS'person'
p996
I402
sS'kelly'
p997
I1629
sS'stunt'
p998
I3365
sS'surprises'
p999
I2473
sS'chest'
p1000
I4216
sS'eager'
p1001
I4703
sS'parents'
p1002
I757
sS'location'
p1003
I1448
sS'crying'
p1004
I2460
sS'surprised'
p1005
I739
sS'niece'
p1006
I5974
sS'australia'
p1007
I3113
sS'victims'
p1008
I1493
sS'demands'
p1009
I3511
sS'couple'
p1010
I369
sS'wives'
p1011
I4814
sS'suffering'
p1012
I2261
sS'quest'
p1013
I2835
sS'projects'
p1014
I3743
sS'd'
p1015
I2524
sS'chorus'
p1016
I5474
sS'individuals'
p1017
I3390
sS'stylish'
p1018
I3079
sS'methods'
p1019
I4863
sS'spring'
p1020
I4281
sS'mighty'
p1021
I4726
sS'sight'
p1022
I1674
sS'curious'
p1023
I2081
sS'pale'
p1024
I5403
sS'and/or'
p1025
I2511
sS'mummy'
p1026
I3847
sS'religion'
p1027
I2259
sS'behave'
p1028
I4581
sS'dating'
p1029
I4329
sS'temple'
p1030
I4148
sS'be'
p1031
I30
sS'bo'
p1032
I4836
sS'nowhere'
p1033
I1238
sS'santa'
p1034
I2865
sS'carol'
p1035
I3870
sS'by'
p1036
I35
sS'deserved'
p1037
I1861
sS'exaggerated'
p1038
I3954
sS'unintentional'
p1039
I4097
sS'stuart'
p1040
I5073
sS'garbage'
p1041
I1159
sS'terrorists'
p1042
I4168
sS'into'
p1043
I86
sS'appropriate'
p1044
I2360
sS'primarily'
p1045
I3841
sS'spending'
p1046
I3209
sS'specifically'
p1047
I3872
sS'suit'
p1048
I1964
sS'opens'
p1049
I2034
sS'considerably'
p1050
I5556
sS'atlantis'
p1051
I5475
sS'elsewhere'
p1052
I3252
sS'jewish'
p1053
I2414
sS'poster'
p1054
I3552
sS'link'
p1055
I4293
sS'pacific'
p1056
I5909
sS'line'
p1057
I367
sS'considerable'
p1058
I4271
sS'posted'
p1059
I5341
sS'cia'
p1060
I3888
sS'up'
p1061
I60
sS'us'
p1062
I178
sS'uh'
p1063
I5852
sS'mature'
p1064
I2709
sS'defined'
p1065
I4795
sS'likewise'
p1066
I4800
sS'chan'
p1067
I2731
sS'3/10'
p1068
I2880
sS'phantom'
p1069
I4747
sS'thugs'
p1070
I4509
sS'widmark'
p1071
I5184
sS'occasional'
p1072
I2613
sS'points'
p1073
I797
sS'actors'
p1074
I154
sS'elements'
p1075
I789
sS'robots'
p1076
I4796
sS'sides'
p1077
I2541
sS'ago'
p1078
I594
sS'lane'
p1079
I2476
sS'land'
p1080
I1345
sS'walken'
p1081
I4087
sS'age'
p1082
I636
sS'holes'
p1083
I1439
sS'walked'
p1084
I2224
sS'walker'
p1085
I3071
sS'fresh'
p1086
I1433
sS'menace'
p1087
I4083
sS'hello'
p1088
I4958
sS'code'
p1089
I2767
sS'results'
p1090
I1937
sS'enjoyable'
p1091
I718
sS'legal'
p1092
I4609
sS'flashback'
p1093
I2591
sS'centers'
p1094
I4828
sS'seemed'
p1095
I457
sS'detectives'
p1096
I5955
sS'turkish'
p1097
I4780
sS'concerned'
p1098
I1938
sS'young'
p1099
I189
sS'send'
p1100
I2301
sS'dislike'
p1101
I3051
sS'resources'
p1102
I4932
sS"show's"
p1103
I4032
sS'garden'
p1104
I4124
sS'torture'
p1105
I1601
sS'continues'
p1106
I2014
sS'mixing'
p1107
I5978
sS'continued'
p1108
I3666
sS'magic'
p1109
I1308
sS'eva'
p1110
I4030
sS'marry'
p1111
I2315
sS'eve'
p1112
I3544
sS'try'
p1113
I350
sS'race'
p1114
I1385
sS'trite'
p1115
I3351
sS'visuals'
p1116
I2021
sS'seventies'
p1117
I4375
sS'video'
p1118
I393
sS'incidentally'
p1119
I5455
sS'spaghetti'
p1120
I5005
sS'victor'
p1121
I2587
sS'expressed'
p1122
I4841
sS'consistently'
p1123
I4170
sS'indian'
p1124
I1327
sS'twins'
p1125
I4498
sS'bird'
p1126
I3490
sS'scenery'
p1127
I1290
sS'die-hard'
p1128
I5192
sS'led'
p1129
I1518
sS'lee'
p1130
I954
sS'leg'
p1131
I4242
sS'respectively'
p1132
I5679
sS'punch'
p1133
I2902
sS'delivering'
p1134
I3777
sS'les'
p1135
I4627
sS'poverty'
p1136
I3674
sS'invented'
p1137
I5202
sS'fifteen'
p1138
I3444
sS'great'
p1139
I83
sS'engage'
p1140
I4692
sS'receive'
p1141
I3665
sS'involved'
p1142
I564
sS'titanic'
p1143
I3784
sS'resulting'
p1144
I4716
sS'defeat'
p1145
I4342
sS'popcorn'
p1146
I3974
sS'opinion'
p1147
I648
sS'residents'
p1148
I5972
sS'makes'
p1149
I163
sS'maker'
p1150
I3582
sS'involves'
p1151
I2103
sS'thats'
p1152
I1543
sS'holmes'
p1153
I2389
sS'tarantino'
p1154
I3915
sS'standing'
p1155
I2158
sS'confidence'
p1156
I5318
sS'francis'
p1157
I4007
sS'clich\xc3\xa9s'
p1158
I1689
sS'illegal'
p1159
I4046
sS'bush'
p1160
I3797
sS'next'
p1161
I364
sS'clich\xc3\xa9d'
p1162
I2439
sS'doubt'
p1163
I779
sS'rick'
p1164
I3802
sS'babe'
p1165
I5278
sS'occurred'
p1166
I3966
sS'carrying'
p1167
I2934
sS'rubbish'
p1168
I1857
sS'baby'
p1169
I972
sS'high'
p1170
I326
sS'balls'
p1171
I5118
sS'animals'
p1172
I1533
sS'this'
p1173
I15
sS'challenge'
p1174
I2969
sS'insists'
p1175
I5668
sS'thin'
p1176
I1719
sS'rooney'
p1177
I5749
sS'process'
p1178
I1608
sS'lock'
p1179
I5306
sS'purposes'
p1180
I4646
sS'pieces'
p1181
I1322
sS'depiction'
p1182
I2647
sS'reynolds'
p1183
I3161
sS'educational'
p1184
I4674
sS'destroying'
p1185
I5207
sS"king's"
p1186
I5103
sS'pair'
p1187
I1953
sS'animal'
p1188
I1702
sS'mysteries'
p1189
I4658
sS'comedy'
p1190
I215
sS'intelligent'
p1191
I1097
sS'stand'
p1192
I879
sS'aspiring'
p1193
I5657
sS'tied'
p1194
I3194
sS'fits'
p1195
I2322
sS'ties'
p1196
I4409
sS'realized'
p1197
I1647
sS'muppets'
p1198
I5495
sS'lame'
p1199
I855
sS'robot'
p1200
I2373
sS'element'
p1201
I1507
sS'realizes'
p1202
I2509
sS'allow'
p1203
I1679
sS'subplots'
p1204
I4276
sS'boxing'
p1205
I4706
sS'similarities'
p1206
I4267
sS'producer'
p1207
I1413
sS'mute'
p1208
I4956
sS'move'
p1209
I809
sS'produced'
p1210
I1073
sS'directs'
p1211
I4423
sS"wife's"
p1212
I4803
sS'perfect'
p1213
I401
sS'chosen'
p1214
I2293
sS'thieves'
p1215
I5863
sS'derivative'
p1216
I5525
sS'designs'
p1217
I5185
sS'earn'
p1218
I5831
sS'mediocre'
p1219
I1526
sS'newman'
p1220
I5220
sS'snake'
p1221
I3322
sS'kiss'
p1222
I2546
sS'cage'
p1223
I2415
sS'realize'
p1224
I939
sS'installment'
p1225
I3852
sS'bette'
p1226
I4055
sS'delightful'
p1227
I2099
sS'denzel'
p1228
I5238
sS'betty'
p1229
I2808
sS'truth'
p1230
I850
sS'accompanied'
p1231
I4141
sS'beneath'
p1232
I3937
sS'glasses'
p1233
I4326
sS'doing'
p1234
I397
sS'society'
p1235
I888
sS'books'
p1236
I1190
sS'static'
p1237
I5089
sS'banal'
p1238
I5335
sS'witness'
p1239
I2333
sS'matrix'
p1240
I2980
sS'superbly'
p1241
I3579
sS'hilarious'
p1242
I571
sS'shut'
p1243
I2892
sS'philosophy'
p1244
I3978
sS'interactions'
p1245
I5325
sS'greedy'
p1246
I5017
sS'surely'
p1247
I1370
sS'scary'
p1248
I666
sS'dubbed'
p1249
I2249
sS'could'
p1250
I101
sS'david'
p1251
I604
sS'length'
p1252
I1869
sS'davis'
p1253
I1928
sS'chills'
p1254
I5651
sS'scare'
p1255
I2344
sS'blown'
p1256
I2716
sS'scene'
p1257
I133
sS'owned'
p1258
I5407
sS'jesus'
p1259
I2155
sS'stark'
p1260
I4587
sS'owner'
p1261
I2036
sS'blows'
p1262
I3217
sS'fascinating'
p1263
I1398
sS'los'
p1264
I2970
sS'festival'
p1265
I1359
sS'system'
p1266
I1511
sS'painful'
p1267
I1333
sS'interests'
p1268
I5211
sS'stomach'
p1269
I2921
sS'lot'
p1270
I169
sS'shorts'
p1271
I2717
sS'depressing'
p1272
I2250
sS'elite'
p1273
I5939
sS'steel'
p1274
I4529
sS'bother'
p1275
I1225
sS'tortured'
p1276
I3605
sS'roberts'
p1277
I2534
sS'appealing'
p1278
I2410
sS'ingenious'
p1279
I5914
sS'false'
p1280
I2580
sS'viewer'
p1281
I528
sS'tonight'
p1282
I4352
sS'gentle'
p1283
I3956
sS'blockbuster'
p1284
I2674
sS'clearly'
p1285
I692
sS'viewed'
p1286
I2210
sS'studying'
p1287
I5517
sS'sinatra'
p1288
I3009
sS'linda'
p1289
I3478
sS'korean'
p1290
I3335
sS'juliet'
p1291
I5310
sS'lily'
p1292
I5627
sS'soap'
p1293
I1922
sS'accuracy'
p1294
I5108
sS'pete'
p1295
I5469
sS'nancy'
p1296
I3166
sS'doug'
p1297
I4493
sS'altman'
p1298
I5063
sS'**'
p1299
I3705
sS'device'
p1300
I2655
sS'segment'
p1301
I2336
sS'so-called'
p1302
I3017
sS'b-movie'
p1303
I2323
sS'stronger'
p1304
I3702
sS'face'
p1305
I405
sS"you'll"
p1306
I475
sS'wounded'
p1307
I4421
sS'painting'
p1308
I3719
sS'fact'
p1309
I194
sS'atmosphere'
p1310
I838
sS'bring'
p1311
I720
sS"90's"
p1312
I3159
sS'bedroom'
p1313
I4829
sS'rough'
p1314
I2650
sS'asylum'
p1315
I4985
sS'decade'
p1316
I2074
sS'principal'
p1317
I4125
sS'noir'
p1318
I1676
sS'jay'
p1319
I3018
sS'should'
p1320
I145
sS'tape'
p1321
I1897
sS'riding'
p1322
I3069
sS'hope'
p1323
I426
sS'meant'
p1324
I991
sS'insight'
p1325
I2557
sS'handle'
p1326
I2773
sS'means'
p1327
I791
sS'familiar'
p1328
I1062
sS'lucky'
p1329
I2016
sS'h'
p1330
I3435
sS'stuff'
p1331
I512
sS'motorcycle'
p1332
I5704
sS'guessing'
p1333
I3005
sS'btw'
p1334
I5705
sS'frame'
p1335
I2069
sS'edition'
p1336
I4356
sS'packed'
p1337
I3448
sS'superhero'
p1338
I4837
sS'destiny'
p1339
I4485
sS'insulting'
p1340
I3670
sS'nuclear'
p1341
I2787
sS'warren'
p1342
I4727
sS'ends'
p1343
I644
sS'staring'
p1344
I4353
sS'marty'
p1345
I5018
sS'hammy'
p1346
I5829
sS'figured'
p1347
I2478
sS'invited'
p1348
I5026
sS'drug'
p1349
I1247
sS'etc'
p1350
I501
sS'figures'
p1351
I2677
sS'invites'
p1352
I5565
sS'chaplin'
p1353
I2617
sS'co'
p1354
I5612
sS'cg'
p1355
I4693
sS'cd'
p1356
I4530
sS'crafted'
p1357
I3203
sS'labor'
p1358
I5641
sS'blatant'
p1359
I4062
sS'richards'
p1360
I5893
sS'waste'
p1361
I447
sS'>'
p1362
I11
sS'homosexual'
p1363
I4101
sS'resort'
p1364
I4431
sS'graphics'
p1365
I2896
sS'spain'
p1366
I4694
sS'pretentious'
p1367
I2073
sS'balance'
p1368
I2954
sS'lush'
p1369
I5928
sS'site'
p1370
I2064
sS'pitt'
p1371
I3473
sS'lust'
p1372
I4531
sS'vs'
p1373
I1536
sS'sits'
p1374
I4371
sS'terrorist'
p1375
I3961
sS'romance'
p1376
I878
sS'matthew'
p1377
I3661
sS'ball'
p1378
I2037
sS'columbia'
p1379
I5957
sS'raymond'
p1380
I4910
sS'emotionally'
p1381
I2149
sS'drink'
p1382
I2825
sS'upon'
p1383
I686
sS'dust'
p1384
I4159
sS'light-hearted'
p1385
I5907
sS'identity'
p1386
I2061
sS'pleasantly'
p1387
I3662
sS'off'
p1388
I129
sS'colour'
p1389
I3525
sS'command'
p1390
I4472
sS'audio'
p1391
I3574
sS'drawing'
p1392
I4392
sS'legendary'
p1393
I2563
sS'flesh'
p1394
I2294
sS'moments'
p1395
I385
sS'kramer'
p1396
I5633
sS'rooms'
p1397
I4232
sS'paul'
p1398
I840
sS'web'
p1399
I3840
sS'generous'
p1400
I3660
sS'wes'
p1401
I4773
sS'combine'
p1402
I4482
sS'wet'
p1403
I4128
sS'government'
p1404
I1307
sS'checking'
p1405
I3193
sS'five'
p1406
I742
sS'passable'
p1407
I4717
sS'fools'
p1408
I5989
sS'crisp'
p1409
I5242
sS'become'
p1410
I421
sS'footage'
p1411
I867
sS'thief'
p1412
I3083
sS'recognition'
p1413
I3932
sS'disbelief'
p1414
I2840
sS'literally'
p1415
I1177
sS'avoid'
p1416
I772
sS'does'
p1417
I126
sS'passion'
p1418
I1609
sS'forgiven'
p1419
I5929
sS'blowing'
p1420
I4338
sS'pressure'
p1421
I4864
sS'imaginary'
p1422
I5725
sS'r'
p1423
I2151
sS'hiding'
p1424
I3076
sS'sister'
p1425
I808
sS'lifestyle'
p1426
I4012
sS'asks'
p1427
I1704
sS'angeles'
p1428
I3509
sS'flair'
p1429
I5051
sS'documentary'
p1430
I653
sS'swimming'
p1431
I4412
sS'letters'
p1432
I4649
sS'catherine'
p1433
I2917
sS'austen'
p1434
I4942
sS'mere'
p1435
I2752
sS'spots'
p1436
I3220
sS'peters'
p1437
I5663
sS'frustration'
p1438
I4596
sS'flynn'
p1439
I3563
sS'naturally'
p1440
I1849
sS'function'
p1441
I5770
sS'delivery'
p1442
I2747
sS'\xc2\x96'
p1443
I490
sS'construction'
p1444
I4797
sS'delivers'
p1445
I1490
sS'count'
p1446
I1546
sS'evident'
p1447
I3631
sS'official'
p1448
I4038
sS'smooth'
p1449
I4391
sS'corpses'
p1450
I5075
sS'placed'
p1451
I2642
sS'garbo'
p1452
I5042
sS'convince'
p1453
I2366
sS'distribution'
p1454
I5246
sS'irish'
p1455
I2488
sS'recognize'
p1456
I2356
sS'unwatchable'
p1457
I3816
sS'jesse'
p1458
I4501
sS'compared'
p1459
I1083
sS'nonetheless'
p1460
I2665
sS'deadly'
p1461
I2440
sS'lately'
p1462
I4513
sS'details'
p1463
I1301
sS'behold'
p1464
I5793
sS'francisco'
p1465
I4357
sS'unoriginal'
p1466
I4274
sS'chance'
p1467
I563
sS'vein'
p1468
I5336
sS'exposure'
p1469
I5043
sS'ghost'
p1470
I1348
sS'lasted'
p1471
I4842
sS'rule'
p1472
I2536
sS'lift'
p1473
I5176
sS'rural'
p1474
I3765
sS'saves'
p1475
I3135
sS'controversial'
p1476
I2872
sS'mansion'
p1477
I3576
sS'saved'
p1478
I1956
sS'relationships'
p1479
I1456
sS'porno'
p1480
I3893
sS'endings'
p1481
I4284
sS'edward'
p1482
I2387
sS'voted'
p1483
I5786
sS'worth'
p1484
I277
sS'compassion'
p1485
I5113
sS"women's"
p1486
I4999
sS"isn't"
p1487
I214
sS"we'll"
p1488
I3770
sS'samurai'
p1489
I4900
sS'1940s'
p1490
I5585
sS'triumph'
p1491
I4339
sS'messy'
p1492
I5953
sS'machines'
p1493
I4923
sS'established'
p1494
I3112
sS'above'
p1495
I732
sS'neat'
p1496
I3325
sS'told'
p1497
I558
sS'simultaneously'
p1498
I4857
sS'pursuit'
p1499
I4880
sS'celebration'
p1500
I5992
sS'kudos'
p1501
I3399
sS'daughter'
p1502
I576
sS'items'
p1503
I5494
sS'study'
p1504
I1994
sS'smoke'
p1505
I3534
sS'aka'
p1506
I2538
sS'spooky'
p1507
I3685
sS'highly'
p1508
I540
sS'total'
p1509
I917
sS'sarah'
p1510
I2756
sS'plot'
p1511
I117
sS'indians'
p1512
I3233
sS'negative'
p1513
I1549
sS'insult'
p1514
I2275
sS'1930s'
p1515
I4479
sS'separated'
p1516
I5864
sS'award'
p1517
I1407
sS'aware'
p1518
I1932
sS'1990'
p1519
I5172
sS'1993'
p1520
I5266
sS'word'
p1521
I675
sS'wore'
p1522
I4285
sS'1997'
p1523
I5080
sS'1996'
p1524
I4901
sS'1999'
p1525
I3919
sS'1998'
p1526
I5726
sS'work'
p1527
I164
sS'worn'
p1528
I5050
sS'era'
p1529
I1033
sS'gloria'
p1530
I5488
sS'indie'
p1531
I2734
sS'india'
p1532
I2669
sS'fay'
p1533
I5844
sS'walsh'
p1534
I5740
sS"disney's"
p1535
I5470
sS'farce'
p1536
I3608
sS'provide'
p1537
I1638
sS'ie'
p1538
I5931
sS'egyptian'
p1539
I5322
sS'nuts'
p1540
I4763
sS'one-liners'
p1541
I3410
sS'interview'
p1542
I2539
sS'disappoint'
p1543
I4313
sS'ordinary'
p1544
I1812
sS'beach'
p1545
I2110
sS'fever'
p1546
I4808
sS'after'
p1547
I104
sS'lab'
p1548
I3712
sS'lay'
p1549
I4246
sS'law'
p1550
I1352
sS'meaningful'
p1551
I3136
sS'las'
p1552
I5496
sS'appreciate'
p1553
I1086
sS'greek'
p1554
I3044
sS'green'
p1555
I1431
sS'fan'
p1556
I323
sS'order'
p1557
I631
sS'greed'
p1558
I4846
sS'office'
p1559
I1077
sS'westerns'
p1560
I2468
sS'innovative'
p1561
I4090
sS'japan'
p1562
I2227
sS'mayor'
p1563
I4651
sS'somewhere'
p1564
I1173
sS'highlights'
p1565
I3360
sS'christie'
p1566
I5532
sS'production'
p1567
I365
sS'understated'
p1568
I4413
sS'versus'
p1569
I4110
sS'then'
p1570
I96
sS'them'
p1571
I95
sS'affected'
p1572
I3766
sS'safe'
p1573
I2467
sS'break'
p1574
I1028
sS'band'
p1575
I1134
sS'bang'
p1576
I4894
sS'they'
p1577
I37
sS'bank'
p1578
I2140
sS'rocky'
p1579
I4603
sS'reasonably'
p1580
I3567
sS'backgrounds'
p1581
I4582
sS'l'
p1582
I3364
sS'rocks'
p1583
I3739
sS'reasonable'
p1584
I3456
sS"70's"
p1585
I1682
sS'carlos'
p1586
I5346
sS'lifted'
p1587
I5244
sS'crimes'
p1588
I3204
sS'recognizable'
p1589
I5938
sS'network'
p1590
I2238
sS'cameras'
p1591
I4043
sS'hooked'
p1592
I3171
sS'forty'
p1593
I5243
sS'strangers'
p1594
I4088
sS'daniel'
p1595
I2666
sS'forth'
p1596
I2506
sS'middle-aged'
p1597
I5010
sS'standard'
p1598
I1273
sS"people's"
p1599
I2874
sS"character's"
p1600
I1744
sS'created'
p1601
I1043
sS'creates'
p1602
I2134
sS'lousy'
p1603
I2214
sS'another'
p1604
I159
sS'comic'
p1605
I753
sS'timothy'
p1606
I4538
sS'rated'
p1607
I1452
sS'elevator'
p1608
I5775
sS'rates'
p1609
I5112
sS'cassavetes'
p1610
I4369
sS'john'
p1611
I316
sS'dogs'
p1612
I2232
sS'happily'
p1613
I3287
sS'albert'
p1614
I2328
sS'rejected'
p1615
I5448
sS"/>it's"
p1616
I931
sS'wasted'
p1617
I985
sS'toronto'
p1618
I6001
sS'mercy'
p1619
I5787
sS'target'
p1620
I2361
sS'kung-fu'
p1621
I5930
sS'scenes'
p1622
I139
sS'guilt'
p1623
I3415
sS'historical'
p1624
I1283
sS'powers'
p1625
I1790
sS'minus'
p1626
I5358
sS'astaire'
p1627
I5820
sS'manner'
p1628
I1380
sS'forced'
p1629
I872
sS'strength'
p1630
I2041
sS'genuine'
p1631
I1894
sS'latter'
p1632
I1599
sS'seymour'
p1633
I5757
sS'subjects'
p1634
I3714
sS'forces'
p1635
I1885
sS'explanation'
p1636
I1721
sS'bruce'
p1637
I1418
sS'sue'
p1638
I4849
sS'involving'
p1639
I1163
sS'germany'
p1640
I2309
sS'scripts'
p1641
I3019
sS'grave'
p1642
I2568
sS'sub'
p1643
I3585
sS'aunt'
p1644
I3213
sS'deeply'
p1645
I1700
sS'notion'
p1646
I4153
sS'renting'
p1647
I2579
sS'subtly'
p1648
I5692
sS'lewis'
p1649
I2107
sS'subtle'
p1650
I1257
sS'enjoyed'
p1651
I504
sS'resemblance'
p1652
I4327
sS'painfully'
p1653
I2295
sS'screening'
p1654
I2732
sS'adequate'
p1655
I4180
sS'personality'
p1656
I1576
sS'predecessor'
p1657
I5543
sS'do'
p1658
I84
sS'de'
p1659
I936
sS'preferred'
p1660
I5553
sS'da'
p1661
I4540
sS'watson'
p1662
I4628
sS'haunted'
p1663
I2452
sS'nasty'
p1664
I1592
sS'dr'
p1665
I3944
sS'runs'
p1666
I1221
sS"children's"
p1667
I2525
sS"hitchcock's"
p1668
I4261
sS'wannabe'
p1669
I4362
sS'steal'
p1670
I2022
sS'secretary'
p1671
I3856
sS'miserably'
p1672
I3250
sS'depends'
p1673
I5800
sS'horrendous'
p1674
I3397
sS'miserable'
p1675
I4117
sS'techniques'
p1676
I3088
sS'draws'
p1677
I3793
sS'away'
p1678
I244
sS'gentleman'
p1679
I4973
sS'unable'
p1680
I2007
sS'props'
p1681
I4256
sS'drawn'
p1682
I1547
sS'encounters'
p1683
I3323
sS'we'
p1684
I75
sS'terms'
p1685
I1254
sS'handful'
p1686
I3429
sS'unfold'
p1687
I4965
sS'clues'
p1688
I3486
sS'dialogues'
p1689
I3741
sS'kitchen'
p1690
I3849
sS'cop'
p1691
I1010
sS'essentially'
p1692
I1911
sS'cox'
p1693
I4405
sS'ill'
p1694
I2612
sS'receives'
p1695
I4908
sS'brad'
p1696
I3072
sS'disappears'
p1697
I4892
sS'con'
p1698
I4147
sS'tone'
p1699
I1236
sS'royal'
p1700
I4834
sS'tons'
p1701
I3445
sS'tony'
p1702
I1416
sS'speak'
p1703
I1064
sS'strong'
p1704
I577
sS'charisma'
p1705
I3408
sS'dozens'
p1706
I4177
sS'scarecrow'
p1707
I4075
sS'warmth'
p1708
I4590
sS'families'
p1709
I2145
sS'innocent'
p1710
I1298
sS'attacked'
p1711
I2929
sS'concerning'
p1712
I3619
sS'fest'
p1713
I4826
sS'east'
p1714
I2618
sS'conviction'
p1715
I5587
sS'air'
p1716
I943
sS'aim'
p1717
I5221
sS'abrupt'
p1718
I5526
sS'aid'
p1719
I4386
sS'voice'
p1720
I599
sS'mistake'
p1721
I1373
sS'descent'
p1722
I4620
sS'perform'
p1723
I2846
sS'jerry'
p1724
I1696
sS'bunny'
p1725
I5400
sS'hank'
p1726
I5796
sS'independent'
p1727
I1681
sS'belushi'
p1728
I5849
sS'quentin'
p1729
I5808
sS'hang'
p1730
I3060
sS'evil'
p1731
I471
sS'hand'
p1732
I567
sS'kept'
p1733
I780
sS'scenario'
p1734
I2692
sS'1978'
p1735
I5626
sS'humble'
p1736
I4946
sS'1973'
p1737
I5492
sS'kyle'
p1738
I5083
sS'1971'
p1739
I4959
sS'1970'
p1740
I5255
sS'campy'
p1741
I2701
sS'contact'
p1742
I2898
sS'the'
p1743
I2
sS'musical'
p1744
I695
sS'photo'
p1745
I5055
sS'mid'
p1746
I3568
sS'quotes'
p1747
I4664
sS'thanks'
p1748
I1186
sS'victim'
p1749
I1393
sS'adding'
p1750
I2737
sS'hills'
p1751
I3271
sS'photographer'
p1752
I4113
sS'josh'
p1753
I4556
sS'belongs'
p1754
I3151
sS'transformed'
p1755
I5384
sS'board'
p1756
I1800
sS'photographed'
p1757
I3590
sS'tarzan'
p1758
I2406
sS'progresses'
p1759
I4418
sS'gandhi'
p1760
I5877
sS'night'
p1761
I320
sS'security'
p1762
I2531
sS'sends'
p1763
I3183
sS'born'
p1764
I1481
sS'productions'
p1765
I2606
sS'unless'
p1766
I863
sS'bore'
p1767
I2765
sS'confusing'
p1768
I1419
sS'humor'
p1769
I458
sS'purple'
p1770
I4917
sS'comments'
p1771
I770
sS'filming'
p1772
I1344
sS'asking'
p1773
I2132
sS'beating'
p1774
I3528
sS'adorable'
p1775
I4345
sS'matthau'
p1776
I3575
sS'marketing'
p1777
I4545
sS'khan'
p1778
I3441
sS'post'
p1779
I2051
sS'months'
p1780
I1786
sS'anime'
p1781
I2542
sS'wasting'
p1782
I3100
sS'pays'
p1783
I4077
sS'prisoners'
p1784
I3729
sS'profession'
p1785
I5794
sS'bound'
p1786
I3049
sS'strangely'
p1787
I2877
sS'available'
p1788
I1252
sS'fight'
p1789
I551
sS'way'
p1790
I98
sS'wax'
p1791
I3925
sS'quirky'
p1792
I2615
sS'was'
p1793
I17
sS'war'
p1794
I314
sS'lowest'
p1795
I4683
sS'bettie'
p1796
I5385
sS'becoming'
p1797
I1539
sS'taken'
p1798
I595
sS'elderly'
p1799
I3543
sS'true'
p1800
I292
sS'absent'
p1801
I4718
sS'mtv'
p1802
I4684
sS'crystal'
p1803
I4536
sS'emotional'
p1804
I871
sS'promises'
p1805
I4477
sS'gather'
p1806
I5920
sS'moore'
p1807
I1986
sS'nudity'
p1808
I1037
sS'wretched'
p1809
I5527
sS'evidence'
p1810
I2027
sS'guessed'
p1811
I4424
sS'promised'
p1812
I4629
sS'physical'
p1813
I1677
sS'dying'
p1814
I1632
sS'reality'
p1815
I608
sS'interested'
p1816
I897
sS'holding'
p1817
I2368
sS'test'
p1818
I2181
sS'brothers'
p1819
I1104
sS'welcome'
p1820
I2493
sS'convincing'
p1821
I1074
sS"let's"
p1822
I958
sS'scores'
p1823
I4239
sS'cheated'
p1824
I4320
sS'together'
p1825
I294
sS'loyal'
p1826
I4188
sS'paced'
p1827
I2594
sS'songs'
p1828
I710
sS'concept'
p1829
I1114
sS'vampires'
p1830
I2080
sS'dance'
p1831
I870
sS'global'
p1832
I4974
sS'battle'
p1833
I935
sS'devoted'
p1834
I3928
sS'certainly'
p1835
I418
sS'killings'
p1836
I3501
sS'zone'
p1837
I3294
sS'flash'
p1838
I3154
sS'fog'
p1839
I5970
sS'rhythm'
p1840
I5963
sS'terror'
p1841
I2226
sS'brown'
p1842
I1848
sS'charles'
p1843
I1193
sS'seemingly'
p1844
I1467
sS'vegas'
p1845
I4091
sS'trouble'
p1846
I1090
sS'blast'
p1847
I5053
sS'presented'
p1848
I1346
sS'turns'
p1849
I505
sS'gun'
p1850
I1045
sS'gus'
p1851
I4804
sS'p'
p1852
I4078
sS'guy'
p1853
I224
sS'lloyd'
p1854
I2966
sS'upper'
p1855
I3980
sS'brave'
p1856
I2722
sS'regret'
p1857
I2475
sS'bravo'
p1858
I5028
sS'repetitive'
p1859
I3416
sS'discover'
p1860
I1796
sS'cost'
p1861
I2117
sS'helpless'
p1862
I5724
sS'curse'
p1863
I2676
sS'appear'
p1864
I956
sS'shares'
p1865
I5319
sS'shared'
p1866
I5410
sS'appeal'
p1867
I1299
sS'satisfy'
p1868
I4872
sS'supporting'
p1869
I725
sS'explosion'
p1870
I4009
sS'muslim'
p1871
I5934
sS'mst3k'
p1872
I3116
sS"hadn't"
p1873
I1858
sS'teaches'
p1874
I4783
sS'appears'
p1875
I719
sS'change'
p1876
I656
sS'sending'
p1877
I5320
sS'trial'
p1878
I3130
sS'usually'
p1879
I620
sS'retired'
p1880
I5022
sS'extra'
p1881
I1651
sS'marked'
p1882
I5690
sS'bullock'
p1883
I5095
sS'sincerely'
p1884
I5720
sS'embarrassing'
p1885
I2190
sS'fbi'
p1886
I2842
sS'rarely'
p1887
I1659
sS'market'
p1888
I2466
sS'prove'
p1889
I1863
sS'angela'
p1890
I3862
sS'live'
p1891
I433
sS'wonderfully'
p1892
I1699
sS'schlock'
p1893
I5940
sS"anyone's"
p1894
I5582
sS'angels'
p1895
I3016
sS'club'
p1896
I1390
sS'clue'
p1897
I2239
sS"/>i've"
p1898
I3634
sS'graphic'
p1899
I2119
sS'car'
p1900
I519
sS'cat'
p1901
I1231
sS'can'
p1902
I71
sS'heart'
p1903
I533
sS'dedicated'
p1904
I3864
sS'hears'
p1905
I5519
sS"didn't"
p1906
I156
sS'topic'
p1907
I2951
sS'heard'
p1908
I545
sS'clothing'
p1909
I4068
sS'occur'
p1910
I3671
sS'fortunately'
p1911
I2943
sS'discussion'
p1912
I3715
sS'magazine'
p1913
I3391
sS'write'
p1914
I896
sS'firmly'
p1915
I5548
sS'product'
p1916
I2139
sS'sacrifice'
p1917
I4044
sS'use'
p1918
I353
sS'southern'
p1919
I2614
sS'disgusted'
p1920
I5557
sS'produce'
p1921
I2283
sS'heroes'
p1922
I1722
sS'nomination'
p1923
I4518
sS'remember'
p1924
I376
sS'whenever'
p1925
I1904
sS'explicit'
p1926
I3804
sS'kurt'
p1927
I4059
sS'typical'
p1928
I771
sS'serving'
p1929
I5558
sS'indeed'
p1930
I842
sS'displayed'
p1931
I4350
sS'brain'
p1932
I1196
sS'cold'
p1933
I1126
sS'still'
p1934
I131
sS'birds'
p1935
I4532
sS'forms'
p1936
I4244
sS'window'
p1937
I1844
sS'non'
p1938
I3236
sS'nod'
p1939
I5395
sS'introduce'
p1940
I4700
sS'half'
p1941
I357
sS'not'
p1942
I25
sS'now'
p1943
I148
sS'hall'
p1944
I2222
sS'nor'
p1945
I907
sS'wont'
p1946
I3945
sS'servant'
p1947
I5564
sS'james'
p1948
I596
sS'drop'
p1949
I2471
sS'intrigued'
p1950
I3935
sS'wong'
p1951
I5456
sS'entirely'
p1952
I1070
sS'em'
p1953
I3586
sS'el'
p1954
I4852
sS'fired'
p1955
I3788
sS'challenged'
p1956
I4970
sS'ed'
p1957
I1400
sS'kane'
p1958
I2753
sS'directing'
p1959
I962
sS'yeah'
p1960
I1105
sS'challenges'
p1961
I5439
sS'fires'
p1962
I5593
sS'ex'
p1963
I3677
sS'year'
p1964
I348
sS'et'
p1965
I4200
sS'happen'
p1966
I568
sS'avoided'
p1967
I4580
sS'amusement'
p1968
I5616
sS'tried'
p1969
I750
sS'album'
p1970
I4340
sS'shown'
p1971
I593
sS'accomplish'
p1972
I5574
sS'opened'
p1973
I2975
sS'space'
p1974
I744
sS'furthermore'
p1975
I3779
sS'looking'
p1976
I278
sS'shows'
p1977
I273
sS'inevitably'
p1978
I5186
sS'cary'
p1979
I5047
sS'cars'
p1980
I1842
sS'film-makers'
p1981
I5897
sS'rebel'
p1982
I4576
sS'carl'
p1983
I3663
sS'marine'
p1984
I5449
sS'inevitable'
p1985
I3367
sS'card'
p1986
I3529
sS'care'
p1987
I454
sS'transition'
p1988
I4986
sS'british'
p1989
I702
sS'honest'
p1990
I1154
sS'suffice'
p1991
I5239
sS'blind'
p1992
I1946
sS'flying'
p1993
I1625
sS'stevens'
p1994
I4323
sS'yourself'
p1995
I625
sS'directly'
p1996
I2469
sS'invasion'
p1997
I4636
sS'impossible'
p1998
I1155
sS'message'
p1999
I731
sS'raped'
p2000
I3443
sS'tomorrow'
p2001
I4687
sS'size'
p2002
I3414
sS'sheer'
p2003
I1958
sS'checked'
p2004
I4827
sS'silent'
p2005
I1262
sS'caught'
p2006
I1009
sS'remotely'
p2007
I2569
sS'tragic'
p2008
I1579
sS'friend'
p2009
I445
sS'mostly'
p2010
I655
sS'that'
p2011
I16
sS'brains'
p2012
I3819
sS'appreciated'
p2013
I2827
sS'television'
p2014
I693
sS'karate'
p2015
I4631
sS'sublime'
p2016
I5613
sS'angel'
p2017
I2327
sS'remained'
p2018
I4607
sS'craig'
p2019
I3818
sS'slap'
p2020
I4478
sS'13th'
p2021
I4559
sS'anger'
p2022
I2693
sS'offering'
p2023
I3801
sS'veteran'
p2024
I2365
sS'terrific'
p2025
I1285
sS'equipment'
p2026
I4211
sS'mr.'
p2027
I529
sS'online'
p2028
I4909
sS'objective'
p2029
I5033
sS'begin'
p2030
I875
sS'price'
p2031
I1817
sS'importantly'
p2032
I3269
sS'america'
p2033
I926
sS'michelle'
p2034
I2918
sS'forever'
p2035
I1377
sS'sidekick'
p2036
I3996
sS'steady'
p2037
I5795
sS'mrs'
p2038
I5865
sS'professional'
p2039
I1649
sS'typically'
p2040
I3337
sS'german'
p2041
I1040
sS'fifty'
p2042
I5463
sS'discovered'
p2043
I1951
sS'fifth'
p2044
I5079
sS'realizing'
p2045
I4666
sS'nemesis'
p2046
I5237
sS'title'
p2047
I420
sS'skits'
p2048
I5827
sS'only'
p2049
I65
sS'developed'
p2050
I1477
sS'thompson'
p2051
I5392
sS'close-ups'
p2052
I4294
sS'cannon'
p2053
I5006
sS'samuel'
p2054
I5170
sS'truly'
p2055
I363
sS'cannot'
p2056
I565
sS'seldom'
p2057
I4990
sS'losers'
p2058
I5287
sS'amanda'
p2059
I3587
sS'husband'
p2060
I677
sS'concert'
p2061
I2795
sS'physically'
p2062
I3106
sS'staged'
p2063
I3909
sS'namely'
p2064
I4228
sS'asleep'
p2065
I2347
sS'sport'
p2066
I3979
sS'concern'
p2067
I4918
sS'suspects'
p2068
I3315
sS'fascinated'
p2069
I4978
sS'3'
p2070
I446
sS'between'
p2071
I202
sS'notice'
p2072
I1381
sS'deliver'
p2073
I1589
sS'blame'
p2074
I1707
sS'hurts'
p2075
I4805
sS'daddy'
p2076
I5327
sS'talented'
p2077
I1025
sS'monk'
p2078
I5658
sS'prequel'
p2079
I5993
sS'comes'
p2080
I269
sS'nearby'
p2081
I3691
sS'madness'
p2082
I2848
sS'characterization'
p2083
I3498
sS'inexplicably'
p2084
I5321
sS"couldn't"
p2085
I410
sS'proved'
p2086
I2157
sS'charismatic'
p2087
I3635
sS'oliver'
p2088
I2836
sS'cares'
p2089
I2109
sS'carey'
p2090
I5691
sS'cared'
p2091
I3692
sS'elvis'
p2092
I4335
sS'ruby'
p2093
I5673
sS'countless'
p2094
I3499
sS'developing'
p2095
I4347
sS'these'
p2096
I135
sS'trick'
p2097
I3061
sS'thrillers'
p2098
I3307
sS'alcoholic'
p2099
I4939
sS'commander'
p2100
I4777
sS'canceled'
p2101
I5910
sS'return'
p2102
I997
sS'ship'
p2103
I1425
sS'worry'
p2104
I3067
sS'develop'
p2105
I2178
sS'media'
p2106
I1913
sS'writer/director'
p2107
I3234
sS'gentlemen'
p2108
I5822
sS'food'
p2109
I1660
sS'poetic'
p2110
I4264
sS'noble'
p2111
I3520
sS'finish'
p2112
I1354
sS'closest'
p2113
I4611
sS'enjoyment'
p2114
I3207
sS'favorites'
p2115
I2459
sS'tradition'
p2116
I2976
sS'mentally'
p2117
I2967
sS'theater'
p2118
I760
sS'severe'
p2119
I4755
sS'charged'
p2120
I5539
sS'taxi'
p2121
I4997
sS'choreography'
p2122
I4105
sS'frankie'
p2123
I4237
sS'dancers'
p2124
I4648
sS'valuable'
p2125
I4635
sS'touch'
p2126
I1207
sS'speed'
p2127
I2234
sS'death'
p2128
I327
sS'thinking'
p2129
I532
sS'senseless'
p2130
I4858
sS'improvement'
p2131
I5012
sS'watchable'
p2132
I1687
sS'treatment'
p2133
I2196
sS'struck'
p2134
I3276
sS'real'
p2135
I151
sS'spectacular'
p2136
I2028
sS'read'
p2137
I335
sS'gonna'
p2138
I2096
sS'early'
p2139
I409
sS'listening'
p2140
I2609
sS'symbolism'
p2141
I3541
sS'using'
p2142
I768
sS'execution'
p2143
I2572
sS'lady'
p2144
I806
sS'fortune'
p2145
I3470
sS'miracle'
p2146
I4982
sS'benefit'
p2147
I3898
sS't'
p2148
I2421
sS'fully'
p2149
I1397
sS'twelve'
p2150
I4514
sS'exposed'
p2151
I4060
sS'oscars'
p2152
I3449
sS'eddie'
p2153
I1824
sS'willis'
p2154
I3684
sS'recorded'
p2155
I3983
sS'conservative'
p2156
I4949
sS'willie'
p2157
I5365
sS'sarandon'
p2158
I5226
sS'business'
p2159
I952
sS'equivalent'
p2160
I4728
sS'credits'
p2161
I881
sS'innocence'
p2162
I2925
sS'exciting'
p2163
I1117
sS'throw'
p2164
I1353
sS'comparison'
p2165
I1851
sS'central'
p2166
I1375
sS'fell'
p2167
I1449
sS'wolf'
p2168
I2815
sS'greatly'
p2169
I2959
sS'assassin'
p2170
I3908
sS'deranged'
p2171
I4935
sS'heavy'
p2172
I1471
sS'involvement'
p2173
I3833
sS'nowadays'
p2174
I2913
sS'your'
p2175
I127
sS'stare'
p2176
I5709
sS'prepare'
p2177
I4781
sS'area'
p2178
I1555
sS'assumed'
p2179
I5279
sS'lol'
p2180
I3990
sS'start'
p2181
I371
sS'cats'
p2182
I3886
sS'low'
p2183
I478
sS'stars'
p2184
I415
sS'lou'
p2185
I3859
sS'seagal'
p2186
I2463
sS'manipulative'
p2187
I4933
sS'trying'
p2188
I263
sS'hire'
p2189
I3652
sS'1974'
p2190
I5869
sS'comics'
p2191
I3825
sS'freddy'
p2192
I3208
sS'sadness'
p2193
I3826
sS'beliefs'
p2194
I4593
sS'describe'
p2195
I1643
sS'moved'
p2196
I1600
sS'macbeth'
p2197
I5397
sS'moves'
p2198
I1096
sS'nerd'
p2199
I5143
sS'credibility'
p2200
I2904
sS'cinematography'
p2201
I621
sS'thought-provoking'
p2202
I4921
sS'gambling'
p2203
I5958
sS'you'
p2204
I26
sS'forcing'
p2205
I5227
sS'poor'
p2206
I332
sS'60s'
p2207
I3070
sS'carpenter'
p2208
I3612
sS'peak'
p2209
I4612
sS'suited'
p2210
I4363
sS'pool'
p2211
I3222
sS'building'
p2212
I1357
sS"1980's"
p2213
I5212
sS'strings'
p2214
I5566
sS'surrounded'
p2215
I3538
sS'skeleton'
p2216
I5647
sS'month'
p2217
I3450
sS'thoughtful'
p2218
I4301
sS'cameron'
p2219
I3191
sS'religious'
p2220
I1713
sS'monty'
p2221
I5228
sS'dreadful'
p2222
I2017
sS'referring'
p2223
I5973
sS'foster'
p2224
I3394
sS'very'
p2225
I56
sS'horror'
p2226
I196
sS'vera'
p2227
I5959
sS'minded'
p2228
I5771
sS'decide'
p2229
I1136
sS'frankenstein'
p2230
I3843
sS'laura'
p2231
I2678
sS'heaven'
p2232
I2035
sS'louis'
p2233
I2269
sS'manager'
p2234
I3007
sS'mile'
p2235
I3877
sS'smith'
p2236
I1445
sS"i'll"
p2237
I690
sS'streets'
p2238
I1949
sS'befriends'
p2239
I5969
sS'casual'
p2240
I5280
sS'chuckle'
p2241
I5398
sS'conscience'
p2242
I5457
sS'darkness'
p2243
I2271
sS'witnessed'
p2244
I4154
sS'emotions'
p2245
I1295
sS'witnesses'
p2246
I5023
sS'learned'
p2247
I1780
sS'edited'
p2248
I2030
sS'/10'
p2249
I3751
sS'loose'
p2250
I1751
sS'ballet'
p2251
I5348
sS'answers'
p2252
I2792
sS'tracks'
p2253
I3912
sS'iraq'
p2254
I5288
sS'ahead'
p2255
I1484
sS'inspired'
p2256
I1618
sS'exceptionally'
p2257
I4778
sS'creepy'
p2258
I963
sS'soldier'
p2259
I1597
sS'amount'
p2260
I1094
sS'heroin'
p2261
I5644
sS'advertising'
p2262
I4414
sS'family'
p2263
I240
sS'ask'
p2264
I959
sS'aimed'
p2265
I3656
sS'trained'
p2266
I4221
sS'toys'
p2267
I4887
sS'conventional'
p2268
I3940
sS'flaws'
p2269
I1501
sS'takes'
p2270
I307
sS'answered'
p2271
I5995
sS'revelation'
p2272
I3280
sS'contains'
p2273
I1355
sS'mysterious'
p2274
I1367
sS'jr.'
p2275
I2006
sS'surprisingly'
p2276
I1212
sS'excuse'
p2277
I1339
sS'broke'
p2278
I3177
sS'producing'
p2279
I4040
sS'respected'
p2280
I4960
sS'offended'
p2281
I3798
sS'nine'
p2282
I3045
sS'history'
p2283
I482
sS'pushes'
p2284
I5750
sS'pushed'
p2285
I3653
sS'phrase'
p2286
I4557
sS'lacks'
p2287
I1457
sS'species'
p2288
I4704
sS'string'
p2289
I3346
sS'stayed'
p2290
I2656
sS'fu'
p2291
I2851
sS'rude'
p2292
I4943
sS'fx'
p2293
I3726
sS'sneak'
p2294
I5158
sS'tries'
p2295
I499
sS'*****'
p2296
I4940
sS'fi'
p2297
I5426
sS'a'
p2298
I4
sS'contrived'
p2299
I2078
sS'bugs'
p2300
I3150
sS'ego'
p2301
I4441
sS'dream'
p2302
I1008
sS'chicks'
p2303
I4904
sS'help'
p2304
I338
sS'soon'
p2305
I524
sS'held'
p2306
I1646
sS'committed'
p2307
I2296
sS'hell'
p2308
I600
sS'actually'
p2309
I161
sS'absence'
p2310
I3950
sS"haven't"
p2311
I737
sS'fool'
p2312
I2589
sS'evening'
p2313
I2253
sS'curtis'
p2314
I4212
sS'ya'
p2315
I3967
sS'floating'
p2316
I4467
sS"you've"
p2317
I824
sS'foot'
p2318
I2462
sS'ninja'
p2319
I3143
sS'desperately'
p2320
I2770
sS'occasions'
p2321
I5071
sS'stopped'
p2322
I2280
sS'fairy'
p2323
I3223
sS'trailer'
p2324
I1495
sS'referred'
p2325
I5131
sS'flashbacks'
p2326
I2058
sS'neil'
p2327
I3999
sS'jaws'
p2328
I4497
sS'wacky'
p2329
I4667
sS'kidnapping'
p2330
I5890
sS'todd'
p2331
I4102
sS'beyond'
p2332
I657
sS'absurdity'
p2333
I5830
sS'event'
p2334
I1527
sS'visions'
p2335
I5476
sS'robert'
p2336
I603
sS'since'
p2337
I235
sS'douglas'
p2338
I2084
sS'engrossing'
p2339
I5745
sS'safety'
p2340
I4425
sS'7'
p2341
I1148
sS'issue'
p2342
I1776
sS'ass'
p2343
I2300
sS'pun'
p2344
I4736
sS'dirt'
p2345
I5459
sS'houses'
p2346
I4388
sS'reason'
p2347
I284
sS'base'
p2348
I2768
sS'dire'
p2349
I3828
sS'put'
p2350
I271
sS'hapless'
p2351
I5926
sS'heroic'
p2352
I3676
sS'revolutionary'
p2353
I4349
sS'terrible'
p2354
I377
sS'terribly'
p2355
I1918
sS'american'
p2356
I311
sS'expecting'
p2357
I998
sS'kung'
p2358
I3097
sS'apocalypse'
p2359
I4623
sS'talked'
p2360
I3313
sS'miss'
p2361
I696
sS'horse'
p2362
I1717
sS'st.'
p2363
I3790
sS'station'
p2364
I1572
sS'scheme'
p2365
I4140
sS'selling'
p2366
I3369
sS'passed'
p2367
I2256
sS'trapped'
p2368
I2483
sS'jamie'
p2369
I3078
sS'jordan'
p2370
I5034
sS'boredom'
p2371
I3081
sS'translation'
p2372
I3854
sS'hundred'
p2373
I3037
sS'performers'
p2374
I3192
sS'grey'
p2375
I3761
sS'bride'
p2376
I3722
sS'greg'
p2377
I5333
sS'toward'
p2378
I1929
sS'mickey'
p2379
I2683
sS'charlotte'
p2380
I4453
sS'alongside'
p2381
I4387
sS'randomly'
p2382
I5149
sS'well-written'
p2383
I5664
sS'vulnerable'
p2384
I4633
sS'lie'
p2385
I2705
sS'cave'
p2386
I3507
sS'scotland'
p2387
I5878
sS'officers'
p2388
I3756
sS'lit'
p2389
I4722
sS'useless'
p2390
I3102
sS'aired'
p2391
I3089
sS'towards'
p2392
I924
sS'quote'
p2393
I3170
sS'macy'
p2394
I4569
sS'hired'
p2395
I2605
sS'experiences'
p2396
I2376
sS'eaten'
p2397
I4160
sS'kay'
p2398
I5571
sS'performances'
p2399
I360
sS'clear'
p2400
I749
sS'popularity'
p2401
I4654
sS'clean'
p2402
I2169
sS'usual'
p2403
I652
sS'blend'
p2404
I3873
sS'filmed'
p2405
I748
sS'stunned'
p2406
I5121
sS'top-notch'
p2407
I5480
sS'reminiscent'
p2408
I2813
sS'northern'
p2409
I5572
sS'justice'
p2410
I1402
sS'less'
p2411
I351
sS'paranoia'
p2412
I4895
sS'randy'
p2413
I3830
sS'pretty'
p2414
I182
sS'circle'
p2415
I4174
sS'meanwhile'
p2416
I1931
sS'trees'
p2417
I4106
sS'famous'
p2418
I807
sS'feels'
p2419
I778
sS'grew'
p2420
I2108
sS'pretending'
p2421
I4346
sS'basement'
p2422
I3267
sS'during'
p2423
I301
sS'alexander'
p2424
I3546
sS'catches'
p2425
I4118
sS'glover'
p2426
I4549
sS'hype'
p2427
I3405
sS'x'
p2428
I2948
sS'throwing'
p2429
I2718
sS'plausible'
p2430
I4351
sS'culture'
p2431
I1183
sS'close'
p2432
I555
sS'locals'
p2433
I5382
sS'horrid'
p2434
I3500
sS'pictures'
p2435
I1278
sS'wow'
p2436
I1294
sS'woo'
p2437
I5460
sS'made-for-tv'
p2438
I4634
sS'probably'
p2439
I241
sS'conditions'
p2440
I4502
sS'makeup'
p2441
I2394
sS'missing'
p2442
I995
sS'genre'
p2443
I531
sS'abruptly'
p2444
I5990
sS'league'
p2445
I2843
sS'secrets'
p2446
I3706
sS"wouldn't"
p2447
I578
sS'sensitive'
p2448
I2698
sS'forgotten'
p2449
I1515
sS'experimental'
p2450
I4774
sS'liked'
p2451
I422
sS'headed'
p2452
I3899
sS'whatever'
p2453
I851
sS'likes'
p2454
I1150
sS'described'
p2455
I2042
sS'celluloid'
p2456
I3686
sS'describes'
p2457
I4107
sS'damn'
p2458
I1561
sS'territory'
p2459
I3353
sS'empty'
p2460
I1930
sS'dame'
p2461
I5289
sS'dialogue'
p2462
I407
sS'lived'
p2463
I1447
sS'partly'
p2464
I4000
sS'crack'
p2465
I3931
sS'troma'
p2466
I4714
sS'else'
p2467
I325
sS'anthony'
p2468
I1998
sS'lives'
p2469
I463
sS'intriguing'
p2470
I1685
sS'look'
p2471
I166
sS'rope'
p2472
I5600
sS'pace'
p2473
I1036
sS'while'
p2474
I140
sS'ought'
p2475
I4049
sS'animated'
p2476
I1266
sS'mitchell'
p2477
I3458
sS'guide'
p2478
I3082
sS'pack'
p2479
I3298
sS'overlooked'
p2480
I3837
sS'danes'
p2481
I5549
sS'reads'
p2482
I4739
sS'terminator'
p2483
I5695
sS'ready'
p2484
I1559
sS'shaw'
p2485
I5669
sS'anymore'
p2486
I1505
sS'grant'
p2487
I2553
sS'belong'
p2488
I4152
sS'grand'
p2489
I1757
sS'conflict'
p2490
I1828
sS'used'
p2491
I333
sS'ratings'
p2492
I2796
sS'bonus'
p2493
I4238
sS'blair'
p2494
I2949
sS'wilson'
p2495
I2578
sS'uses'
p2496
I1065
sS'user'
p2497
I4358
sS'haunting'
p2498
I2341
sS'older'
p2499
I948
sS'obviously'
p2500
I521
sS'synopsis'
p2501
I3850
sS'weakest'
p2502
I4561
sS'breathtaking'
p2503
I3055
sS'reviewer'
p2504
I2204
sS'$'
p2505
I3039
sS'cemetery'
p2506
I5680
sS'remaining'
p2507
I3383
sS'march'
p2508
I4415
sS'lacking'
p2509
I1813
sS'showing'
p2510
I741
sS'game'
p2511
I469
sS'emma'
p2512
I3400
sS'wings'
p2513
I5309
sS'interestingly'
p2514
I5132
sS'provoking'
p2515
I4122
sS'donna'
p2516
I5069
sS'popular'
p2517
I1069
sS'parade'
p2518
I5721
sS'fathers'
p2519
I5901
sS'creation'
p2520
I3034
sS'some'
p2521
I51
sS'lips'
p2522
I4061
sS'experienced'
p2523
I2286
sS'savage'
p2524
I3629
sS'describing'
p2525
I5272
sS'civilization'
p2526
I4748
sS'slapstick'
p2527
I2330
sS'minimal'
p2528
I3433
sS'cgi'
p2529
I1610
sS'everybody'
p2530
I1343
sS'eating'
p2531
I2127
sS'step'
p2532
I1688
sS'lasts'
p2533
I5996
sS'plots'
p2534
I1787
sS'wealth'
p2535
I4522
sS'shine'
p2536
I4111
sS'faith'
p2537
I1874
sS'conrad'
p2538
I5584
sS'classics'
p2539
I2039
sS'block'
p2540
I4207
sS'seeing'
p2541
I313
sS'dude'
p2542
I2485
sS'sandra'
p2543
I3375
sS'nonsense'
p2544
I1936
sS'himself'
p2545
I312
sS'inept'
p2546
I2774
sS'properly'
p2547
I2828
sS'reed'
p2548
I4175
sS'authority'
p2549
I4710
sS'russian'
p2550
I1504
sS'amateurish'
p2551
I2277
sS'reel'
p2552
I4977
sS'dull'
p2553
I747
sS'info'
p2554
I5967
sS'wicked'
p2555
I3418
sS'similar'
p2556
I726
sS'ordered'
p2557
I5044
sS'adults'
p2558
I1503
sS'rupert'
p2559
I5151
sS'psychopath'
p2560
I5778
sS'amounts'
p2561
I4176
sS'fears'
p2562
I3615
sS'department'
p2563
I2362
sS'manhattan'
p2564
I4013
sS'smiles'
p2565
I5727
sS'draw'
p2566
I2449
sS'visits'
p2567
I5024
sS'william'
p2568
I1001
sS'drag'
p2569
I2135
sS'heroine'
p2570
I1999
sS'structure'
p2571
I2432
sS'overlong'
p2572
I5446
sS'practically'
p2573
I2355
sS'dvd'
p2574
I274
sS'outing'
p2575
I5347
sS'required'
p2576
I2520
sS'depth'
p2577
I1145
sS'ignorant'
p2578
I4610
sS'underrated'
p2579
I2128
sS'requires'
p2580
I3417
sS'sounded'
p2581
I2626
sS'go'
p2582
I143
sS'psycho'
p2583
I2418
sS'kate'
p2584
I2490
sS'wizard'
p2585
I5326
sS'suits'
p2586
I3198
sS'friendly'
p2587
I3073
sS'murderous'
p2588
I3948
sS'kitty'
p2589
I5122
sS'wave'
p2590
I3309
sS'chooses'
p2591
I5093
sS'telling'
p2592
I1029
sS'stiff'
p2593
I3693
sS'gender'
p2594
I5915
sS'button'
p2595
I3581
sS'michael'
p2596
I500
sS'ryan'
p2597
I1693
sS'barbara'
p2598
I2130
sS'carter'
p2599
I3963
sS'boots'
p2600
I5979
sS'jump'
p2601
I1941
sS'picked'
p2602
I1574
sS'montana'
p2603
I5870
sS'plays'
p2604
I299
sS'paintings'
p2605
I5717
sS'colonel'
p2606
I4164
sS'bergman'
p2607
I3720
sS'cell'
p2608
I2616
sS'rotten'
p2609
I4305
sS'experiment'
p2610
I2882
sS'nicholas'
p2611
I4793
sS'focuses'
p2612
I2670
sS'commercial'
p2613
I2089
sS'following'
p2614
I947
sS'focused'
p2615
I2607
sS'kidnapped'
p2616
I3227
sS"weren't"
p2617
I1158
sS'gene'
p2618
I2218
sS'wig'
p2619
I5617
sS'clark'
p2620
I2961
sS'danger'
p2621
I2375
sS'pitch'
p2622
I3426
sS'win'
p2623
I1222
sS'manage'
p2624
I1829
sS'wit'
p2625
I2291
sS'singing'
p2626
I1171
sS'metaphor'
p2627
I4944
sS'connery'
p2628
I3598
sS'remains'
p2629
I1250
sS'hudson'
p2630
I3628
sS'camera'
p2631
I384
sS'vehicle'
p2632
I2292
sS'jonathan'
p2633
I3241
sS'historically'
p2634
I4287
sS'reflects'
p2635
I5594
sS'1/2'
p2636
I3911
sS'biblical'
p2637
I5620
sS'started'
p2638
I645
sS'becomes'
p2639
I472
sS'charming'
p2640
I1271
sS'ride'
p2641
I1276
sS'meet'
p2642
I876
sS'drops'
p2643
I4381
sS'control'
p2644
I1153
sS'escapes'
p2645
I2931
sS'halloween'
p2646
I2104
sS'escaped'
p2647
I3625
sS'pulling'
p2648
I3494
sS'wonderful'
p2649
I390
sS'orson'
p2650
I5577
sS'poetry'
p2651
I4010
sS'located'
p2652
I5461
sS'fare'
p2653
I2576
sS'farm'
p2654
I3065
sS'ronald'
p2655
I5497
sS'introduced'
p2656
I1658
sS'claire'
p2657
I3678
sS'crazed'
p2658
I5681
sS'agenda'
p2659
I4924
sS'including'
p2660
I579
sS'costume'
p2661
I2408
sS'cruise'
p2662
I4003
sS'mentioned'
p2663
I1067
sS'blake'
p2664
I4280
sS'outer'
p2665
I3272
sS'masses'
p2666
I4867
sS'sword'
p2667
I3011
sS'wells'
p2668
I4807
sS'hands'
p2669
I898
sS'front'
p2670
I977
sS'masters'
p2671
I3489
sS'university'
p2672
I3775
sS'mode'
p2673
I4541
sS'crossing'
p2674
I4876
sS'shaking'
p2675
I5700
sS'globe'
p2676
I5859
sS'measure'
p2677
I3977
sS'special'
p2678
I310
sS'secretly'
p2679
I5000
sS'kapoor'
p2680
I5559
sS'entertainment'
p2681
I716
sS'confess'
p2682
I4950
sS'critics'
p2683
I1372
sS'cause'
p2684
I1048
sS"one's"
p2685
I1962
sS'trashy'
p2686
I4519
sS'70s'
p2687
I1871
sS'completely'
p2688
I329
sS'jill'
p2689
I5809
sS'princess'
p2690
I2708
sS'adolescent'
p2691
I5586
sS'route'
p2692
I5284
sS'rushed'
p2693
I3293
sS'florida'
p2694
I4332
sS'times'
p2695
I210
sS'keen'
p2696
I5628
sS'protagonists'
p2697
I3134
sS'austin'
p2698
I4749
sS'mankind'
p2699
I4660
sS'succeeds'
p2700
I2748
sS'powerful'
p2701
I953
sS'precisely'
p2702
I5086
sS'quality'
p2703
I485
sS"you're"
p2704
I331
sS'bears'
p2705
I3723
sS'adopted'
p2706
I5248
sS'attack'
p2707
I1315
sS'wrapped'
p2708
I4236
sS'perfectly'
p2709
I902
sS'final'
p2710
I466
sS'exactly'
p2711
I609
sS'overwhelming'
p2712
I4355
sS'herself'
p2713
I800
sS'ben'
p2714
I1203
sS'bed'
p2715
I1234
sS'dumb'
p2716
I969
sS'providing'
p2717
I3518
sS'bet'
p2718
I2285
sS'drunk'
p2719
I1988
sS'villains'
p2720
I1891
sS'julian'
p2721
I5447
sS'horrors'
p2722
I3451
sS'goldberg'
p2723
I5823
sS'portrait'
p2724
I3284
sS'need'
p2725
I354
sS'border'
p2726
I4178
sS'sings'
p2727
I3132
sS'able'
p2728
I479
sS'battles'
p2729
I3457
sS'instance'
p2730
I1889
sS'relatives'
p2731
I4675
sS'truck'
p2732
I2392
sS'sitcoms'
p2733
I5975
sS'intentions'
p2734
I3178
sS'vengeance'
p2735
I4515
sS'connected'
p2736
I3242
sS'demise'
p2737
I5133
sS'awe'
p2738
I4930
sS'consequences'
p2739
I3096
sS'upset'
p2740
I2997
sS'astonishing'
p2741
I4833
sS'proceedings'
p2742
I3900
sS'businessman'
p2743
I5308
sS'affair'
p2744
I1464
sS'parker'
p2745
I2562
sS'sent'
p2746
I1391
sS'anyway'
p2747
I543
sS'soldiers'
p2748
I1199
sS'based'
p2749
I451
sS'sheriff'
p2750
I2191
sS'earned'
p2751
I4400
sS'miniseries'
p2752
I4768
sS'winner'
p2753
I2399
sS'credited'
p2754
I5124
sS'won'
p2755
I1253
sS'ethan'
p2756
I5908
sS'cameos'
p2757
I3341
sS'employed'
p2758
I5788
sS'achieve'
p2759
I2781
sS'boris'
p2760
I4394
sS'overall'
p2761
I434
sS'mgm'
p2762
I3042
sS'joins'
p2763
I5166
sS'kong'
p2764
I2240
sS'endless'
p2765
I2102
sS'gray'
p2766
I3747
sS'evolution'
p2767
I5386
sS'places'
p2768
I1311
sS'shy'
p2769
I3584
sS'she'
p2770
I62
sS'contain'
p2771
I2820
sS'tunes'
p2772
I3672
sS'grab'
p2773
I4119
sS'widow'
p2774
I4402
sS'shake'
p2775
I4466
sS'humans'
p2776
I1804
sS'accused'
p2777
I3431
sS'desperate'
p2778
I1756
sS'excitement'
p2779
I2352
sS'nightmare'
p2780
I1952
sS'horribly'
p2781
I2209
sS'tend'
p2782
I2359
sS'state'
p2783
I1063
sS'supernatural'
p2784
I2454
sS'correctly'
p2785
I4750
sS'horrible'
p2786
I487
sS'flicks'
p2787
I1450
sS'ken'
p2788
I3659
sS'sole'
p2789
I3733
sS'importance'
p2790
I3372
sS't.v.'
p2791
I4314
sS'kicking'
p2792
I4947
sS'key'
p2793
I1520
sS'police'
p2794
I562
sS'precious'
p2795
I3358
sS'problem'
p2796
I444
sS'hits'
p2797
I1838
sS'limits'
p2798
I4086
sS'career'
p2799
I627
sS'minds'
p2800
I2495
sS'admit'
p2801
I964
sS'torn'
p2802
I3224
sS'bronson'
p2803
I4896
sS'invisible'
p2804
I3119
sS'quit'
p2805
I4818
sS'addition'
p2806
I1612
sS'slowly'
p2807
I1332
sS'treat'
p2808
I1730
sS'shoulders'
p2809
I5533
sS'senses'
p2810
I4492
sS'controlled'
p2811
I5213
sS'both'
p2812
I195
sS'vince'
p2813
I5330
sS'pie'
p2814
I3744
sS'kicks'
p2815
I3282
sS'smoking'
p2816
I3542
sS'novel'
p2817
I674
sS'harder'
p2818
I3929
sS'salman'
p2819
I5084
sS'owns'
p2820
I5579
sS'keaton'
p2821
I2401
sS'resident'
p2822
I5535
sS'fonda'
p2823
I4127
sS'surface'
p2824
I2260
sS'hearted'
p2825
I5682
sS'bucks'
p2826
I3278
sS'capture'
p2827
I1877
sS'generic'
p2828
I3831
sS'began'
p2829
I1636
sS'parts'
p2830
I510
sS'dickens'
p2831
I5178
sS'underground'
p2832
I2620
sS'party'
p2833
I1005
sS'annie'
p2834
I4312
sS'eccentric'
p2835
I3869
sS'appearances'
p2836
I3075
sS'effect'
p2837
I915
sS'frequently'
p2838
I2994
sS'steals'
p2839
I2205
sS'destruction'
p2840
I3299
sS'reflection'
p2841
I4449
sS'i'
p2842
I14
sS'variety'
p2843
I2358
sS'well'
p2844
I74
sS'increasingly'
p2845
I3356
sS'accurate'
p2846
I1709
sS'mistaken'
p2847
I4150
sS'dose'
p2848
I5840
sS'mistakes'
p2849
I2595
sS'distant'
p2850
I3495
sS'40'
p2851
I2164
sS'laurel'
p2852
I3503
sS'skill'
p2853
I2742
sS'lauren'
p2854
I5487
sS'femme'
p2855
I5139
sS'jeff'
p2856
I1943
sS'patricia'
p2857
I4737
sS'kick'
p2858
I2094
sS'fate'
p2859
I1959
sS'formulaic'
p2860
I4430
sS'remade'
p2861
I5956
sS'unseen'
p2862
I5163
sS'immediately'
p2863
I1179
sS'prominent'
p2864
I5372
sS'loss'
p2865
I1881
sS'lincoln'
p2866
I4288
sS'necessary'
p2867
I1675
sS'lost'
p2868
I428
sS'candy'
p2869
I2206
sS'gangsters'
p2870
I4240
sS'fianc\xc3\xa9'
p2871
I5629
sS'lose'
p2872
I1613
sS'page'
p2873
I1814
sS'shed'
p2874
I5114
sS'library'
p2875
I3366
sS'repeat'
p2876
I3030
sS'home'
p2877
I344
sS'liking'
p2878
I3673
sS'peter'
p2879
I801
sS'broad'
p2880
I3814
sS'inaccurate'
p2881
I5417
sS'reaching'
p2882
I4865
sS'poignant'
p2883
I2984
sS'instinct'
p2884
I5916
sS'freedom'
p2885
I2072
sS'sinister'
p2886
I2914
sS'recognized'
p2887
I4052
sS'nightclub'
p2888
I5665
sS'tongue'
p2889
I4189
sS'equally'
p2890
I1364
sS'glenn'
p2891
I3599
sS'previously'
p2892
I2393
sS'dud'
p2893
I5569
sS'washington'
p2894
I2424
sS'artists'
p2895
I2829
sS'8/10'
p2896
I2284
sS'pointless'
p2897
I1121
sS'additional'
p2898
I5350
sS'museum'
p2899
I3941
sS'daniels'
p2900
I5960
sS'noticed'
p2901
I1765
sS'inner'
p2902
I2608
sS'inspiration'
p2903
I2799
sS'north'
p2904
I2170
sS'gain'
p2905
I3406
sS'ear'
p2906
I5125
sS'eat'
p2907
I1902
sS'he'
p2908
I31
sS'signed'
p2909
I5120
sS'cruel'
p2910
I2447
sS'stories'
p2911
I557
sS'walter'
p2912
I2517
sS'display'
p2913
I2374
sS'universal'
p2914
I2326
sS'penny'
p2915
I5833
sS'twist'
p2916
I1006
sS'beats'
p2917
I3636
sS'conan'
p2918
I5376
sS'education'
p2919
I4136
sS'eric'
p2920
I2106
sS'contest'
p2921
I4442
sS'offensive'
p2922
I2433
sS'7/10'
p2923
I2357
sS'star'
p2924
I346
sS'emerges'
p2925
I5659
sS'astounding'
p2926
I5718
sS'stay'
p2927
I766
sS'stan'
p2928
I3237
sS'friends'
p2929
I347
sS'portion'
p2930
I4426
sS'extras'
p2931
I2258
sS'simpson'
p2932
I5701
sS'secondly'
p2933
I3867
sS'dynamic'
p2934
I4196
sS'andre'
p2935
I5450
sS'asian'
p2936
I2171
sS'consists'
p2937
I3057
sS'captain'
p2938
I1558
sS'whose'
p2939
I635
sS'buddy'
p2940
I1927
sS'segments'
p2941
I3613
sS'seriously'
p2942
I602
sS'presents'
p2943
I2416
sS'teaching'
p2944
I4167
sS'sorry'
p2945
I752
sS'rescue'
p2946
I2123
sS'affect'
p2947
I4788
sS'low-budget'
p2948
I1855
sS'vast'
p2949
I3844
sS'skills'
p2950
I1967
sS'companies'
p2951
I5054
sS'solution'
p2952
I4455
sS'unrelated'
p2953
I5883
sS'ups'
p2954
I3836
sS'clothes'
p2955
I1654
sS'force'
p2956
I1113
sS'japanese'
p2957
I933
sS'likely'
p2958
I1244
sS'even'
p2959
I57
sS'wreck'
p2960
I3813
sS'integrity'
p2961
I4782
sS'ned'
p2962
I4001
sS'lights'
p2963
I2544
sS'dr.'
p2964
I877
sS'new'
p2965
I170
sS'net'
p2966
I5536
sS'ever'
p2967
I125
sS'stinks'
p2968
I4486
sS'meg'
p2969
I5045
sS'screams'
p2970
I3858
sS'mel'
p2971
I3342
sS'never'
p2972
I114
sS'drew'
p2973
I2673
sS'met'
p2974
I1755
sS'active'
p2975
I5378
sS'100'
p2976
I1759
sS"aren't"
p2977
I699
sS'dry'
p2978
I2385
sS'credit'
p2979
I1075
sS'suitable'
p2980
I4408
sS'intrigue'
p2981
I3976
sS'fantastic'
p2982
I785
sS'campaign'
p2983
I5065
sS'county'
p2984
I5871
sS'moral'
p2985
I1488
sS'guests'
p2986
I4403
sS'ponyo'
p2987
I5636
sS'counts'
p2988
I5256
sS'landscape'
p2989
I3648
sS'criminals'
p2990
I2916
sS'army'
p2991
I1226
sS'arms'
p2992
I2586
sS'call'
p2993
I647
sS'calm'
p2994
I4208
sS'recommend'
p2995
I370
sS'survive'
p2996
I1836
sS'type'
p2997
I582
sS'tell'
p2998
I373
sS'oscar'
p2999
I887
sS'wars'
p3000
I1650
sS'warn'
p3001
I3127
sS'berlin'
p3002
I5058
sS'warm'
p3003
I2470
sS'adult'
p3004
I1200
sS'ward'
p3005
I3767
sS'directorial'
p3006
I3641
sS'room'
p3007
I684
sS'rights'
p3008
I2632
sS'setup'
p3009
I5951
sS'roof'
p3010
I5162
sS'movies'
p3011
I102
sS'exceptions'
p3012
I5046
sS'akin'
p3013
I5854
sS'root'
p3014
I3694
sS'give'
p3015
I199
sS'climax'
p3016
I1378
sS'laughs'
p3017
I914
sS'involve'
p3018
I4133
sS'unforgettable'
p3019
I3140
sS'aging'
p3020
I4019
sS'faults'
p3021
I4645
sS'amazing'
p3022
I486
sS'answer'
p3023
I1443
sS'massive'
p3024
I2479
sS'minority'
p3025
I5529
sS'loyalty'
p3026
I5351
sS'curiosity'
p3027
I3389
sS'president'
p3028
I1978
sS'sellers'
p3029
I5815
sS'lesbian'
p3030
I2339
sS'purchase'
p3031
I4192
sS'attempt'
p3032
I588
sS'third'
p3033
I889
sS'maintain'
p3034
I4182
sS'waited'
p3035
I4642
sS'goodbye'
p3036
I5943
sS'unfolds'
p3037
I4092
sS'murray'
p3038
I4037
sS'before'
p3039
I160
sS'personal'
p3040
I916
sS'crew'
p3041
I885
sS'better'
p3042
I128
sS'differently'
p3043
I5076
sS'weeks'
p3044
I2251
sS'overcome'
p3045
I3173
sS'combination'
p3046
I2115
sS'weakness'
p3047
I5437
sS'downright'
p3048
I2687
sS'meat'
p3049
I3361
sS'arrested'
p3050
I3602
sS'lucy'
p3051
I3432
sS'went'
p3052
I411
sS'side'
p3053
I507
sS'bone'
p3054
I3642
sS'mean'
p3055
I386
sS'literature'
p3056
I4845
sS'forgot'
p3057
I2504
sS'navy'
p3058
I3225
sS'aids'
p3059
I5173
sS'dawn'
p3060
I3182
sS'comedies'
p3061
I1286
sS'velvet'
p3062
I5432
sS'tales'
p3063
I2891
sS'crucial'
p3064
I4172
sS'content'
p3065
I1434
sS'reader'
p3066
I5468
sS'surprise'
p3067
I829
sS'corman'
p3068
I5588
sS'turning'
p3069
I1581
sS'u.s.'
p3070
I2024
sS'revenge'
p3071
I1167
sS'struggle'
p3072
I1664
sS'mistress'
p3073
I4382
sS'starts'
p3074
I527
sS'messages'
p3075
I3577
sS'arrived'
p3076
I4360
sS'loud'
p3077
I1401
sS'stewart'
p3078
I1571
sS'features'
p3079
I895
sS'grade'
p3080
I1453
sS'hoot'
p3081
I5502
sS'hook'
p3082
I4108
sS'featured'
p3083
I2419
sS'immensely'
p3084
I4129
sS'hood'
p3085
I2871
sS'girls'
p3086
I517
sS'twisted'
p3087
I2265
sS'hollywood'
p3088
I368
sS'somewhat'
p3089
I663
sS'helen'
p3090
I2654
sS'begins'
p3091
I819
sS'spoiler'
p3092
I1655
sS'exorcist'
p3093
I5072
sS'matter'
p3094
I511
sS'fabulous'
p3095
I2889
sS'silly'
p3096
I661
sS'deserving'
p3097
I5971
sS'spoiled'
p3098
I3522
sS'mini'
p3099
I4740
sS'sees'
p3100
I1072
sS'palace'
p3101
I5746
sS'modern'
p3102
I707
sS'mind'
p3103
I339
sS'mine'
p3104
I1746
sS'ginger'
p3105
I5900
sS'all-time'
p3106
I3871
sS'seen'
p3107
I110
sS'seem'
p3108
I306
sS'sounding'
p3109
I4799
sS'seek'
p3110
I2713
sS'tells'
p3111
I704
sS'fitting'
p3112
I3742
sS'chess'
p3113
I5115
sS'mario'
p3114
I3894
sS'regular'
p3115
I1950
sS'marie'
p3116
I3152
sS'maria'
p3117
I3133
sS'don'
p3118
I1623
sS'doc'
p3119
I4376
sS'medical'
p3120
I2852
sS'm'
p3121
I3609
sS'dog'
p3122
I828
sS'definitely'
p3123
I398
sS'mildred'
p3124
I5578
sS'annoyed'
p3125
I3238
sS'lyrics'
p3126
I3791
sS'one-dimensional'
p3127
I4337
sS'brilliance'
p3128
I3526
sS'ending'
p3129
I272
sS'attempts'
p3130
I994
sS'explain'
p3131
I1218
sS'folks'
p3132
I1432
sS'wearing'
p3133
I1619
sS'set-up'
p3134
I5383
sS'colorful'
p3135
I3176
sS'stop'
p3136
I586
sS'coast'
p3137
I4318
sS'christopher'
p3138
I1430
sS'earl'
p3139
I5254
sS'bat'
p3140
I3380
sS'bar'
p3141
I1510
sS'fields'
p3142
I4027
sS'bay'
p3143
I4953
sS'bag'
p3144
I2962
sS'bad'
p3145
I80
sS'seeks'
p3146
I4505
sS'bam'
p3147
I5706
sS'ears'
p3148
I4194
sS'decides'
p3149
I1066
sS'reference'
p3150
I2870
sS'decided'
p3151
I852
sS'viewings'
p3152
I4665
sS'subject'
p3153
I790
sS'brazil'
p3154
I3462
sS'voyage'
p3155
I5048
sS'said'
p3156
I302
sS'inappropriate'
p3157
I4512
sS'artificial'
p3158
I4701
sS"there's"
p3159
I231
sS'sorts'
p3160
I2528
sS'warrior'
p3161
I3885
sS'lazy'
p3162
I2907
sS'wears'
p3163
I2881
sS'ignorance'
p3164
I5283
sS'cousin'
p3165
I3003
sS'picking'
p3166
I3595
sS'pull'
p3167
I1461
sS'suggested'
p3168
I4389
sS'against'
p3169
I448
sS'russia'
p3170
I3718
sS'presumably'
p3171
I3622
sS'appeared'
p3172
I1483
sS'guaranteed'
p3173
I5772
sS'height'
p3174
I5981
sS'quinn'
p3175
I4459
sS'loaded'
p3176
I4769
sS'puts'
p3177
I1358
sS'basis'
p3178
I2876
sS'three'
p3179
I287
sS'tiny'
p3180
I2112
sS'interest'
p3181
I615
sS'basic'
p3182
I1137
sS'entered'
p3183
I5666
sS'lovely'
p3184
I1275
sS'threw'
p3185
I3440
sS'website'
p3186
I4310
sS'deeper'
p3187
I2627
sS'sunshine'
p3188
I4926
sS'locations'
p3189
I1772
sS'personally'
p3190
I1233
sS'exception'
p3191
I1435
sS'tank'
p3192
I4443
sS'remakes'
p3193
I5789
sS'say'
p3194
I134
sS'transformation'
p3195
I4295
sS'ugly'
p3196
I1512
sS'near'
p3197
I777
sS'suppose'
p3198
I1300
sS'murders'
p3199
I1560
sS'chilling'
p3200
I2945
sS'seven'
p3201
I1624
sS'mexico'
p3202
I3004
sS'is'
p3203
I7
sS'it'
p3204
I13
sS'defeated'
p3205
I5998
sS'iv'
p3206
I5731
sS'ii'
p3207
I1479
sS'shame'
p3208
I848
sS'cant'
p3209
I2122
sS'im'
p3210
I4616
sS'in'
p3211
I12
sS'mouse'
p3212
I3288
sS'disappear'
p3213
I4465
sS'if'
p3214
I46
sS'grown'
p3215
I2351
sS'make'
p3216
I99
sS'potentially'
p3217
I4269
sS'unfortunate'
p3218
I2397
sS'80s'
p3219
I1781
sS'grows'
p3220
I3292
sS'entitled'
p3221
I5292
sS'meets'
p3222
I901
sS'delight'
p3223
I2956
sS'kim'
p3224
I2697
sS'jealous'
p3225
I3710
sS'opportunity'
p3226
I1403
sS"he'll"
p3227
I3933
sS'thoughts'
p3228
I2228
sS'kid'
p3229
I547
sS'romp'
p3230
I5021
sS'failing'
p3231
I4121
sS'rome'
p3232
I4980
sS'qualities'
p3233
I2319
sS'claims'
p3234
I2455
sS'mitchum'
p3235
I5944
sS'left'
p3236
I315
sS'just'
p3237
I43
sS'sentence'
p3238
I3800
sS'unfair'
p3239
I4830
sS'assigned'
p3240
I5019
sS'identify'
p3241
I3277
sS'human'
p3242
I400
sS'facts'
p3243
I2194
sS'yep'
p3244
I5421
sS'yes'
p3245
I416
sS'yet'
p3246
I245
sS'regarded'
p3247
I5106
sS'assassination'
p3248
I5342
sS'character'
p3249
I111
sS'potential'
p3250
I1031
sS'save'
p3251
I575
sS'background'
p3252
I934
sS'destroy'
p3253
I2160
sS'depicts'
p3254
I4116
sS'dreams'
p3255
I1420
sS'shoulder'
p3256
I5204
sS'dignity'
p3257
I3926
sS'visible'
p3258
I4905
sS'nude'
p3259
I2759
sS'performing'
p3260
I3419
sS'unnecessary'
p3261
I1761
sS'zombies'
p3262
I1323
sS'confront'
p3263
I5728
sS'notorious'
p3264
I3211
sS'dean'
p3265
I2499
sS'deal'
p3266
I774
sS'deaf'
p3267
I5440
sS'somehow'
p3268
I815
sS'dead'
p3269
I361
sS'wwe'
p3270
I5544
sS'dear'
p3271
I2922
sS'theatrical'
p3272
I2247
sS'shakespeare'
p3273
I2172
sS'dreck'
p3274
I5486
sS'bold'
p3275
I4234
sS'burn'
p3276
I3514
sS'boll'
p3277
I4432
sS'burt'
p3278
I3087
sS'protagonist'
p3279
I2053
sS'confrontation'
p3280
I5174
sS'super'
p3281
I1582
sS'yelling'
p3282
I4428
sS'cliche'
p3283
I4685
sS'afternoon'
p3284
I2832
sS'commit'
p3285
I3436
sS'whats'
p3286
I4647
sS'intellectual'
p3287
I2875
sS"world's"
p3288
I3487
sS'down'
p3289
I186
sS'lies'
p3290
I1567
sS'narration'
p3291
I2588
sS'frightened'
p3292
I5352
sS'amazingly'
p3293
I2512
sS'initial'
p3294
I2484
sS'jealousy'
p3295
I5652
sS'winters'
p3296
I5483
sS'editor'
p3297
I3703
sS'1/10'
p3298
I3040
sS'form'
p3299
I813
sS'batman'
p3300
I1475
sS'landing'
p3301
I4732
sS'ford'
p3302
I1865
sS'failure'
p3303
I2029
sS'builds'
p3304
I3667
sS'traits'
p3305
I5921
sS'attached'
p3306
I3687
sS'horrifying'
p3307
I4471
sS'propaganda'
p3308
I2312
sS'sticks'
p3309
I3736
sS'classic'
p3310
I356
sS'covers'
p3311
I3771
sS'sale'
p3312
I5784
sS'bogart'
p3313
I5902
sS'fashioned'
p3314
I5085
sS'awhile'
p3315
I4650
sS'generally'
p3316
I1251
sS'handed'
p3317
I4422
sS'digital'
p3318
I3688
sS'holly'
p3319
I3508
sS'delivered'
p3320
I2101
sS'dies'
p3321
I1440
sS'felt'
p3322
I432
sS'journey'
p3323
I1215
sS'authorities'
p3324
I5373
sS'weekend'
p3325
I2550
sS'died'
p3326
I1055
sS'jones'
p3327
I1337
sS'happening'
p3328
I1423
sS'assume'
p3329
I2159
sS'daily'
p3330
I2817
sS'jacket'
p3331
I5589
sS'teeth'
p3332
I2688
sS'restored'
p3333
I5104
sS'managed'
p3334
I1281
sS'skip'
p3335
I1822
sS'film-making'
p3336
I1818
sS'souls'
p3337
I3306
sS'themes'
p3338
I1362
sS'mild'
p3339
I3890
sS'manages'
p3340
I996
sS'skin'
p3341
I2353
sS'mill'
p3342
I5605
sS'milk'
p3343
I5458
sS'suicide'
p3344
I1528
sS'technique'
p3345
I2947
sS'father'
p3346
I366
sS'disgusting'
p3347
I2136
sS'0'
p3348
I3997
sS'finally'
p3349
I413
sS'unpleasant'
p3350
I3809
sS'marks'
p3351
I3914
sS'suffered'
p3352
I3114
sS'me'
p3353
I72
sS'sci-fi'
p3354
I983
sS'sappy'
p3355
I4537
sS'lynch'
p3356
I2343
sS'1995'
p3357
I4507
sS'1994'
p3358
I5988
sS'did'
p3359
I118
sS'die'
p3360
I781
sS'dig'
p3361
I3474
sS'accidentally'
p3362
I2435
sS'travels'
p3363
I3464
sS'round'
p3364
I2182
sS"it'll"
p3365
I3799
sS'unexpected'
p3366
I2054
sS'dealing'
p3367
I1919
sS'run'
p3368
I520
sS'adds'
p3369
I1480
sS'troops'
p3370
I4874
sS'norris'
p3371
I4289
sS'filler'
p3372
I5281
sS'favour'
p3373
I5276
sS'suspect'
p3374
I1678
sS'international'
p3375
I1979
sS'filled'
p3376
I1127
sS'mr'
p3377
I1760
sS'french'
p3378
I712
sS'travolta'
p3379
I5917
sS'wait'
p3380
I835
sS'box'
p3381
I928
sS'boy'
p3382
I442
sS'hbo'
p3383
I3424
sS'canadian'
p3384
I2404
sS'carmen'
p3385
I4810
sS'exploitation'
p3386
I2338
sS'suggestion'
p3387
I5999
sS'priceless'
p3388
I4473
sS'bob'
p3389
I1875
sS'genuinely'
p3390
I1985
sS'teenage'
p3391
I1620
sS'dick'
p3392
I2188
sS'useful'
p3393
I4416
sS'merely'
p3394
I1517
sS'sympathetic'
p3395
I2161
sS'franco'
p3396
I4079
sS'sake'
p3397
I2100
sS'visit'
p3398
I2003
sS'france'
p3399
I2056
sS'thru'
p3400
I4893
sS'sharing'
p3401
I5751
sS'acceptable'
p3402
I3247
sS'effort'
p3403
I762
sS'capturing'
p3404
I4499
sS'fly'
p3405
I2092
sS'melodrama'
p3406
I2498
sS'soul'
p3407
I1314
sS'reviews'
p3408
I822
sS'drags'
p3409
I3285
sS'growing'
p3410
I1825
sS'making'
p3411
I256
sS'arrive'
p3412
I3649
sS'deceased'
p3413
I5581
sS'claim'
p3414
I2380
sS'crazy'
p3415
I941
sS'kenneth'
p3416
I4951
sS'predict'
p3417
I5790
sS'confused'
p3418
I1429
sS'agent'
p3419
I1478
sS'dennis'
p3420
I2321
sS'pink'
p3421
I3596
sS'till'
p3422
I2282
sS'sunday'
p3423
I2775
sS'pure'
p3424
I1035
sS'nyc'
p3425
I4779
sS'map'
p3426
I5302
sS'staying'
p3427
I3863
sS'designer'
p3428
I5670
sS'may'
p3429
I203
sS'max'
p3430
I1955
sS'snl'
p3431
I5637
sS'mad'
p3432
I1119
sS'guys'
p3433
I441
sS'grow'
p3434
I2048
sS'man'
p3435
I137
sS'neck'
p3436
I3564
sS'johnson'
p3437
I2610
sS'maybe'
p3438
I270
sS'tale'
p3439
I793
sS'switch'
p3440
I4483
sS'jail'
p3441
I2651
sS'silence'
p3442
I3062
sS'african'
p3443
I2571
sS'tall'
p3444
I3479
sS'talk'
p3445
I703
sS'cute'
p3446
I1016
sS'shoes'
p3447
I3463
sS'pointed'
p3448
I3413
sS'shaky'
p3449
I5583
sS'wishing'
p3450
I4655
sS'cuts'
p3451
I1925
sS'irene'
p3452
I5225
sS'group'
p3453
I541
sS'thank'
p3454
I1320
sS'interesting'
p3455
I221
sS'maid'
p3456
I5249
sS'mail'
p3457
I5506
sS'main'
p3458
I281
sS'texas'
p3459
I1960
sS'within'
p3460
I740
sS'views'
p3461
I2763
sS'killer'
p3462
I494
sS'sooner'
p3463
I5443
sS'lunch'
p3464
I5765
sS'touching'
p3465
I1318
sS'killed'
p3466
I526
sS'artist'
p3467
I1801
sS'rock'
p3468
I812
sS'conventions'
p3469
I5832
sS'girl'
p3470
I255
sS'morning'
p3471
I1862
sS'description'
p3472
I2791
sS'canada'
p3473
I3845
sS'living'
p3474
I584
sS'jackson'
p3475
I1784
sS'3rd'
p3476
I4656
sS'stupid'
p3477
I359
sS'dutch'
p3478
I4630
sS'correct'
p3479
I2207
sS'earlier'
p3480
I932
sS'monster'
p3481
I782
sS'brooks'
p3482
I2645
sS'imaginable'
p3483
I5623
sS'california'
p3484
I2510
sS'stanwyck'
p3485
I3263
sS'keith'
p3486
I4252
sS'advance'
p3487
I4253
sS'language'
p3488
I1092
sS'thing'
p3489
I150
sS'think'
p3490
I106
sS'frequent'
p3491
I4525
sS'first'
p3492
I92
sS'exotic'
p3493
I4250
sS'cheese'
p3494
I2911
sS'question'
p3495
I880
sS'rachel'
p3496
I3228
sS'americans'
p3497
I1554
sS'fast'
p3498
I845
sS'carry'
p3499
I1627
sS'sounds'
p3500
I912
sS'cheesy'
p3501
I899
sS'little'
p3502
I122
sS'personalities'
p3503
I3243
sS'anyone'
p3504
I250
sS'psychotic'
p3505
I3971
sS'alfred'
p3506
I4089
sS'speaking'
p3507
I1436
sS'subplot'
p3508
I3420
sS'eyes'
p3509
I514
sS'accurately'
p3510
I5152
sS'broadcast'
p3511
I3523
sS'sequels'
p3512
I2208
sS'butt'
p3513
I3748
sS'undoubtedly'
p3514
I4045
sS"here's"
p3515
I2266
sS'11'
p3516
I2540
sS'10'
p3517
I305
sS'13'
p3518
I2785
sS'12'
p3519
I1987
sS'15'
p3520
I1241
sS'14'
p3521
I3311
sS'17'
p3522
I3768
sS'16'
p3523
I4233
sS'18'
p3524
I3565
sS'gotta'
p3525
I3156
sS'venture'
p3526
I5415
sS'were'
p3527
I73
sS'mundane'
p3528
I4938
sS'topics'
p3529
I5758
sS'voices'
p3530
I2243
sS'conspiracy'
p3531
I3707
sS'comedian'
p3532
I2899
sS'voiced'
p3533
I5304
sS'nazi'
p3534
I3139
sS'kevin'
p3535
I1606
sS'shocked'
p3536
I2245
sS'squad'
p3537
I4183
sS'performance'
p3538
I242
sS'channel'
p3539
I1181
sS'jungle'
p3540
I2364
sS'frost'
p3541
I4597
sS'pain'
p3542
I1408
sS'norman'
p3543
I3302
sS'theatre'
p3544
I1630
sS'normal'
p3545
I1220
sS'track'
p3546
I1350
sS'paid'
p3547
I1494
sS'insanity'
p3548
I5102
sS'assault'
p3549
I4606
sS'nolan'
p3550
I5618
sS'complaints'
p3551
I5091
sS'tracy'
p3552
I3986
sS'especially'
p3553
I261
sS'surprising'
p3554
I1691
sS'angst'
p3555
I5523
sS'larry'
p3556
I2311
sS'jumped'
p3557
I5074
sS'voodoo'
p3558
I5866
sS'shop'
p3559
I1866
sS'rating'
p3560
I673
sS'shot'
p3561
I321
sS'show'
p3562
I123
sS'contemporary'
p3563
I2268
sS'corner'
p3564
I3212
sS'treasure'
p3565
I2691
sS'behind'
p3566
I515
sS'black'
p3567
I322
sS'travesty'
p3568
I4903
sS'enthusiasm'
p3569
I4784
sS'get'
p3570
I79
sS'hostage'
p3571
I5649
sS"1950's"
p3572
I3988
sS'satisfied'
p3573
I4214
sS'killers'
p3574
I2289
sS'nearly'
p3575
I788
sS'enjoys'
p3576
I4325
sS'gem'
p3577
I1458
sS'secondary'
p3578
I4819
sS'summary'
p3579
I2543
sS'miles'
p3580
I2005
sS'branagh'
p3581
I5032
sS'honesty'
p3582
I4095
sS'seat'
p3583
I2113
sS'relative'
p3584
I3957
sS'sean'
p3585
I1887
sS'wonder'
p3586
I570
sS'satisfying'
p3587
I2369
sS'gags'
p3588
I1753
sS'carradine'
p3589
I4705
sS'label'
p3590
I5810
sS"father's"
p3591
I2903
sS'enough'
p3592
I193
sS'reading'
p3593
I884
sS'across'
p3594
I605
sS'parent'
p3595
I4410
sS'killing'
p3596
I847
sS'real-life'
p3597
I3409
sS'singers'
p3598
I5661
sS'motivations'
p3599
I4546
sS'dates'
p3600
I5595
sS'stinker'
p3601
I3853
sS'according'
p3602
I1810
sS'tour'
p3603
I3058
sS'disappointment'
p3604
I1386
sS'remake'
p3605
I1026
sS'spare'
p3606
I3589
sS'franchise'
p3607
I3020
sS'among'
p3608
I755
sS'cancer'
p3609
I4936
sS'stretched'
p3610
I5791
sS'freak'
p3611
I3711
sS'nose'
p3612
I3197
sS'considering'
p3613
I1050
sS'arts'
p3614
I1710
sS'caricature'
p3615
I5614
sS'underworld'
p3616
I4697
sS'capable'
p3617
I2150
sS'barry'
p3618
I2783
sS'mark'
p3619
I950
sS'judging'
p3620
I3857
sS'mary'
p3621
I1293
sS'offered'
p3622
I2679
sS'dramatic'
p3623
I973
sS'wake'
p3624
I3430
sS'hardcore'
p3625
I3851
sS'odyssey'
p3626
I5229
sS'those'
p3627
I146
sS'sound'
p3628
I450
sS'promising'
p3629
I2348
sS'investigating'
p3630
I5214
sS'eventually'
p3631
I832
sS'sincere'
p3632
I4520
sS'coffee'
p3633
I4025
sS'sleeping'
p3634
I2812
sS'middle'
p3635
I754
sS'sudden'
p3636
I2230
sS'b-movies'
p3637
I5779
sS'obnoxious'
p3638
I2866
sS'everyday'
p3639
I2794
sS'movements'
p3640
I3962
sS'different'
p3641
I276
sS'pat'
p3642
I3274
sS'harsh'
p3643
I2430
sS'doctor'
p3644
I893
sS'pay'
p3645
I989
sS'same'
p3646
I168
sS'speech'
p3647
I2163
sS'struggling'
p3648
I2779
sS'pal'
p3649
I5146
sS'pan'
p3650
I5285
sS'dated'
p3651
I2012
sS'jeffrey'
p3652
I4437
sS'extended'
p3653
I3637
sS'companion'
p3654
I4254
sS'running'
p3655
I641
sS'driven'
p3656
I2636
sS'totally'
p3657
I452
sS'largely'
p3658
I2270
sS'solve'
p3659
I3210
sS'mann'
p3660
I5961
sS'bottle'
p3661
I4179
sS'amazed'
p3662
I2664
sS'parody'
p3663
I2083
sS'money'
p3664
I291
sS'aspect'
p3665
I1258
sS'clueless'
p3666
I5129
sS'pile'
p3667
I2622
sS'4'
p3668
I643
sS'careers'
p3669
I3781
sS'jake'
p3670
I3547
sS'chainsaw'
p3671
I4743
sS'simmons'
p3672
I5451
sS'mom'
p3673
I1569
sS'mob'
p3674
I2800
sS'disappointed'
p3675
I668
sS'grim'
p3676
I3175
sS'christina'
p3677
I5295
sS'adams'
p3678
I4380
sS'homosexuality'
p3679
I5982
sS'serves'
p3680
I2503
sS'facing'
p3681
I4551
sS'audience'
p3682
I308
sS'either'
p3683
I340
sS'robbery'
p3684
I3953
sS'served'
p3685
I2786
sS'passionate'
p3686
I4222
sS'caliber'
p3687
I5764
sS'climactic'
p3688
I4720
sS'jews'
p3689
I4468
sS'doll'
p3690
I3680
sS'images'
p3691
I1103
sS'joan'
p3692
I1972
sS'gross'
p3693
I3147
sS'stages'
p3694
I5741
sS'overly'
p3695
I2192
sS'mini-series'
p3696
I4390
sS'critical'
p3697
I2604
sS'aussie'
p3698
I5037
sS'claustrophobic'
p3699
I5792
sS'knife'
p3700
I3268
sS'seconds'
p3701
I1564
sS'notable'
p3702
I2884
sS'unusual'
p3703
I1731
sS'notably'
p3704
I3792
sS'broken'
p3705
I1893
sS'refers'
p3706
I5753
sS'island'
p3707
I922
sS'violence'
p3708
I580
sS'develops'
p3709
I3256
sS'demonic'
p3710
I5667
sS'mixed'
p3711
I1920
sS'alec'
p3712
I5560
sS'road'
p3713
I1208
sS'quietly'
p3714
I5263
sS'lands'
p3715
I4751
sS'references'
p3716
I1785
sS'strip'
p3717
I3698
sS'hysterical'
p3718
I3633
sS'gory'
p3719
I2059
sS'mars'
p3720
I4615
sS'pleased'
p3721
I3570
sS'strikes'
p3722
I3618
sS'sophisticated'
p3723
I3378
sS'gore'
p3724
I633
sS'e'
p3725
I3550
sS'romantic'
p3726
I738
sS"wasn't"
p3727
I290
sS'vhs'
p3728
I1766
sS'dubbing'
p3729
I3340
sS'affection'
p3730
I4679
sS'videos'
p3731
I3052
sS'deep'
p3732
I857
sS'general'
p3733
I805
sS'imagination'
p3734
I1544
sS'girlfriend'
p3735
I1014
sS'lifetime'
p3736
I2601
sS'film'
p3737
I23
sS'fill'
p3738
I2142
sS'tedious'
p3739
I2197
sS'again'
p3740
I174
sS'genres'
p3741
I4069
sS'field'
p3742
I1847
sS'brando'
p3743
I4328
sS'stilted'
p3744
I4438
sS'students'
p3745
I1426
sS'translated'
p3746
I5966
sS'narrative'
p3747
I1326
sS'important'
p3748
I660
sS"she's"
p3749
I462
sS'chris'
p3750
I1324
sS'grudge'
p3751
I4588
sS'remote'
p3752
I2801
sS'casts'
p3753
I5879
sS'u'
p3754
I2527
sS'hugely'
p3755
I5850
sS'resembles'
p3756
I3699
sS'alright'
p3757
I2535
sS'starting'
p3758
I1793
sS'represent'
p3759
I4021
sS'forget'
p3760
I818
sS'forbidden'
p3761
I4433
sS'dollar'
p3762
I2847
sS'talks'
p3763
I2154
sS'expressions'
p3764
I2833
sS'sung'
p3765
I5007
sS'emily'
p3766
I3303
sS'enjoying'
p3767
I2850
sS'hideous'
p3768
I4378
sS'straightforward'
p3769
I5070
sS'sitting'
p3770
I1209
sS'overdone'
p3771
I3984
sS'falk'
p3772
I5096
sS'fall'
p3773
I767
sS'difference'
p3774
I1451
sS'steve'
p3775
I1325
sS'celebrity'
p3776
I4661
sS'20th'
p3777
I3332
sS"hollywood's"
p3778
I4553
sS'titled'
p3779
I4022
sS'ritter'
p3780
I5314
sS'preposterous'
p3781
I5606
sS'zero'
p3782
I1672
sS'titles'
p3783
I2887
sS'perspective'
p3784
I2076
sS'lawyer'
p3785
I2771
sS'further'
p3786
I1044
sS'creatures'
p3787
I2082
sS'90s'
p3788
I4552
sS'abc'
p3789
I4377
sS'stood'
p3790
I3357
sS'illogical'
p3791
I4462
sS'tribute'
p3792
I3108
sS'public'
p3793
I1053
sS'movement'
p3794
I2378
sS'ranger'
p3795
I4081
sS'fantasies'
p3796
I5097
sS'search'
p3797
I1622
sS'bible'
p3798
I3379
sS'jackie'
p3799
I2317
sS'airport'
p3800
I3829
sS'misery'
p3801
I4659
sS'mentions'
p3802
I5059
sS'must-see'
p3803
I3679
sS'africa'
p3804
I2505
sS'armed'
p3805
I4393
sS'eye'
p3806
I841
sS'distinct'
p3807
I4801
sS'two'
p3808
I112
sS'comparing'
p3809
I4126
sS'tacky'
p3810
I5195
sS'diamond'
p3811
I4076
sS'leonard'
p3812
I4296
sS"ain't"
p3813
I2567
sS'particular'
p3814
I844
sS'town'
p3815
I518
sS'none'
p3816
I617
sS'hour'
p3817
I560
sS'recall'
p3818
I2143
sS'maniac'
p3819
I4854
sS'sucks'
p3820
I1641
sS'guards'
p3821
I4979
sS'remain'
p3822
I2144
sS'del'
p3823
I5872
sS'dee'
p3824
I4838
sS'shark'
p3825
I3329
sS'share'
p3826
I1489
sS'pro'
p3827
I5203
sS'minimum'
p3828
I4711
sS'numbers'
p3829
I1653
sS'purchased'
p3830
I4678
sS'sharp'
p3831
I2331
sS'robinson'
p3832
I4723
sS'biography'
p3833
I5020
sS'needs'
p3834
I735
sS'awkward'
p3835
I2040
sS'flawless'
p3836
I3675
sS'acts'
p3837
I1376
sS'ensemble'
p3838
I3279
sS'advice'
p3839
I1899
sS'par'
p3840
I2957
sS'uninspired'
p3841
I3230
sS'coming'
p3842
I561
sS'response'
p3843
I3392
sS'bleak'
p3844
I3785
sS'brady'
p3845
I5607
sS'eats'
p3846
I4698
sS'dragon'
p3847
I3026
sS'deserted'
p3848
I5520
sS'responsibility'
p3849
I4273
sS'pleasure'
p3850
I1648
sS'playing'
p3851
I394
sS"that's"
p3852
I201
sS'heartfelt'
p3853
I5608
sS'through'
p3854
I144
sS'existence'
p3855
I2060
sS'suffer'
p3856
I2760
sS'spoof'
p3857
I2556
sS'arrogant'
p3858
I4004
sS'24'
p3859
I3930
sS'messed'
p3860
I5090
sS'comedic'
p3861
I1698
sS'thrilling'
p3862
I3216
sS'late'
p3863
I538
sS'penn'
p3864
I4224
sS'dolls'
p3865
I4436
sS'someone'
p3866
I295
sS'seeking'
p3867
I3064
sS'walls'
p3868
I3617
sS'complain'
p3869
I3958
sS'viewers'
p3870
I783
sS'mystery'
p3871
I820
sS'easily'
p3872
I714
sS'pregnant'
p3873
I2757
sS'drake'
p3874
I5362
sS'goofy'
p3875
I2754
sS'repeating'
p3876
I5060
sS'exquisite'
p3877
I5734
sS'harm'
p3878
I4983
sS'everyone'
p3879
I303
sS'mental'
p3880
I1794
sS'house'
p3881
I328
sS'fish'
p3882
I2552
sS'hard'
p3883
I267
sS'idea'
p3884
I319
sS'engaging'
p3885
I1775
sS'oil'
p3886
I3411
sS'connect'
p3887
I3760
sS'fist'
p3888
I5761
sS'hart'
p3889
I4709
sS'thick'
p3890
I4191
sS'perry'
p3891
I4785
sS'childish'
p3892
I4098
sS'acting'
p3893
I116
sS"they'll"
p3894
I3556
sS'print'
p3895
I2547
sS'tiresome'
p3896
I4859
sS'bully'
p3897
I5803
sS'laughably'
p3898
I4463
sS'lawrence'
p3899
I3690
sS'pleasant'
p3900
I2279
sS'extraordinary'
p3901
I2422
sS'members'
p3902
I1024
sS'laughable'
p3903
I1292
sS'beginning'
p3904
I449
sS'computers'
p3905
I5433
sS'sitcom'
p3906
I2895
sS'dont'
p3907
I5331
sS'done'
p3908
I227
sS'heights'
p3909
I5561
sS"viewer's"
p3910
I5984
sS'divorce'
p3911
I4298
sS'least'
p3912
I223
sS'obligatory'
p3913
I5257
sS'paint'
p3914
I2807
sS'statement'
p3915
I2443
sS'wildly'
p3916
I4861
sS'park'
p3917
I1246
sS'dentist'
p3918
I4451
sS'part'
p3919
I175
sS'doctors'
p3920
I4798
sS'gruesome'
p3921
I2814
sS'believe'
p3922
I260
sS'b'
p3923
I980
sS'gotten'
p3924
I1882
sS'recording'
p3925
I4311
sS'contrary'
p3926
I3650
sS'supposed'
p3927
I439
sS'treated'
p3928
I1831
sS'ages'
p3929
I2129
sS'aged'
p3930
I3253
sS'orders'
p3931
I3949
sS'mountain'
p3932
I2461
sS'built'
p3933
I2193
sS'dancing'
p3934
I1106
sS'couch'
p3935
I5453
sS'majority'
p3936
I2184
sS'build'
p3937
I1769
sS'commentary'
p3938
I1591
sS'godfather'
p3939
I3330
sS'depths'
p3940
I5932
sS'most'
p3941
I91
sS'charm'
p3942
I1404
sS'significant'
p3943
I2740
sS'extremely'
p3944
I556
sS'storyline'
p3945
I761
sS'thomas'
p3946
I1663
sS'particularly'
p3947
I574
sS'hopper'
p3948
I4005
sS'vampire'
p3949
I1224
sS'relation'
p3950
I4641
sS'carefully'
p3951
I3291
sS'fine'
p3952
I483
sS'find'
p3953
I165
sS'giant'
p3954
I1309
sS'nervous'
p3955
I4450
sS'ruin'
p3956
I2649
sS'19th'
p3957
I5282
sS'unhappy'
p3958
I4695
sS'idiots'
p3959
I3591
sS'convoluted'
p3960
I4020
sS'dysfunctional'
p3961
I5258
sS'8'
p3962
I1188
sS'luke'
p3963
I2772
sS'express'
p3964
I2551
sS'courage'
p3965
I3046
sS'frankly'
p3966
I1912
sS'remove'
p3967
I5343
sS'common'
p3968
I1100
sS'witches'
p3969
I5534
sS"60's"
p3970
I2912
sS'cynical'
p3971
I3033
sS'lion'
p3972
I3403
sS'individual'
p3973
I2137
sS'leslie'
p3974
I3142
sS'tender'
p3975
I4268
sS'desires'
p3976
I5099
sS'expert'
p3977
I3149
sS'visiting'
p3978
I5001
sS'please'
p3979
I583
sS"kid's"
p3980
I5425
sS'fans'
p3981
I453
sS'argento'
p3982
I5145
sS'burned'
p3983
I3749
sS'iron'
p3984
I4084
sS'masterful'
p3985
I4331
sS'premise'
p3986
I836
sS'restaurant'
p3987
I3484
sS'solely'
p3988
I4115
sS'foreign'
p3989
I1924
sS'point'
p3990
I225
sS'simple'
p3991
I591
sS'gypsy'
p3992
I5653
sS'dances'
p3993
I4604
sS'dancer'
p3994
I3421
sS'simply'
p3995
I324
sS'throughout'
p3996
I467
sS'expensive'
p3997
I3373
sS'raise'
p3998
I3015
sS'create'
p3999
I1004
sS'trilogy'
p4000
I2487
sS'creativity'
p4001
I4359
sS'secret'
p4002
I1012
sS'dropping'
p4003
I5735
sS'ireland'
p4004
I3795
sS'meeting'
p4005
I2114
sS'kathy'
p4006
I5269
sS'wish'
p4007
I632
sS'gay'
p4008
I900
sS'gas'
p4009
I2802
sS'cruelty'
p4010
I4981
sS'gal'
p4011
I5892
sS'understand'
p4012
I380
sS'gag'
p4013
I3148
sS'hitchcock'
p4014
I1872
sS'raw'
p4015
I2788
sS'solid'
p4016
I1162
sS'bill'
p4017
I982
sS'grainy'
p4018
I5368
sS'holocaust'
p4019
I4954
sS'sexuality'
p4020
I3031
sS'replaced'
p4021
I2960
sS'fun'
p4022
I246
sS'shoddy'
p4023
I5353
sS'century'
p4024
I1107
sS'itself'
p4025
I389
sS'limit'
p4026
I5500
sS'italy'
p4027
I2985
sS'would-be'
p4028
I5038
sS'butcher'
p4029
I5987
sS'ruth'
p4030
I4299
sS'development'
p4031
I960
sS'yesterday'
p4032
I4103
sS'moment'
p4033
I554
sS'purpose'
p4034
I1243
sS'realm'
p4035
I5036
sS'task'
p4036
I2641
sS'werewolf'
p4037
I2332
sS'spent'
p4038
I976
sS'entry'
p4039
I2897
sS'chemistry'
p4040
I1182
sS'spend'
p4041
I1129
sS'ludicrous'
p4042
I2780
sS'isolated'
p4043
I3891
sS'distracting'
p4044
I4057
sS'shape'
p4045
I3266
sS'alternative'
p4046
I4290
sS'letting'
p4047
I2971
sS'superficial'
p4048
I4058
sS'cut'
p4049
I640
sS'cup'
p4050
I3803
sS'hated'
p4051
I1737
sS'alternate'
p4052
I5119
sS'shouting'
p4053
I5153
sS'cue'
p4054
I5416
sS'deliberately'
p4055
I4319
sS'excited'
p4056
I2242
sS'hates'
p4057
I4217
sS'bin'
p4058
I3951
sS'big'
p4059
I198
sS'mins'
p4060
I5935
sS'matters'
p4061
I2225
sS'redeem'
p4062
I5760
sS'bit'
p4063
I228
sS'knock'
p4064
I4354
sS'follows'
p4065
I1081
sS'often'
p4066
I399
sS'humorous'
p4067
I1906
sS'30s'
p4068
I5876
sS'magnificent'
p4069
I1837
sS'back'
p4070
I147
sS'martial'
p4071
I1716
sS'strongest'
p4072
I5277
sS'examples'
p4073
I2668
sS'mirror'
p4074
I3022
sS'ourselves'
p4075
I3094
sS'scale'
p4076
I2438
sS'pet'
p4077
I3304
sS'decision'
p4078
I2062
sS'per'
p4079
I3472
sS'epic'
p4080
I1602
sS'laughing'
p4081
I1020
sS'patient'
p4082
I2482
sS'remembered'
p4083
I2002
sS'continuing'
p4084
I5837
sS'costumes'
p4085
I1328
sS'crap'
p4086
I598
sS'hackneyed'
p4087
I5374
sS'&'
p4088
I184
sS'mrs.'
p4089
I2246
sS'drama'
p4090
I473
sS'jimmy'
p4091
I2079
sS'aliens'
p4092
I2023
sS'framed'
p4093
I5736
sS'steven'
p4094
I2065
sS'lesson'
p4095
I2032
sS'downhill'
p4096
I4300
sS'infected'
p4097
I5698
sS'germans'
p4098
I3214
sS'forward'
p4099
I978
sS'bored'
p4100
I1078
sS'murphy'
p4101
I2728
sS'hoped'
p4102
I3382
sS'boys'
p4103
I862
sS'hopes'
p4104
I1909
sS'directed'
p4105
I530
sS'clips'
p4106
I3027
sS'exploration'
p4107
I4941
sS'planes'
p4108
I5369
sS'well-known'
p4109
I4644
sS'devastating'
p4110
I5983
sS'constant'
p4111
I1815
sS'metal'
p4112
I2797
sS'single'
p4113
I700
sS'cure'
p4114
I3314
sS'kirk'
p4115
I4206
sS'ellen'
p4116
I4815
sS'explaining'
p4117
I3985
sS'favourite'
p4118
I1640
sS'liners'
p4119
I5507
sS'prepared'
p4120
I2521
sS"guy's"
p4121
I4348
sS'utterly'
p4122
I1267
sS'fisher'
p4123
I5270
sS'depicting'
p4124
I4637
sS'desert'
p4125
I1735
sS'appalling'
p4126
I3401
sS'2002'
p4127
I4229
sS'2003'
p4128
I4230
sS'2000'
p4129
I3481
sS'2001'
p4130
I2657
sS'2006'
p4131
I3258
sS'presenting'
p4132
I5307
sS'2004'
p4133
I3868
sS'2005'
p4134
I3107
sS'portraying'
p4135
I2267
sS'jason'
p4136
I1628
sS'vicious'
p4137
I3947
sS'literary'
p4138
I5215
sS'helps'
p4139
I1474
sS'fatal'
p4140
I4029
sS'queen'
p4141
I1666
sS'putting'
p4142
I1508
sS'implausible'
p4143
I3805
sS'severely'
p4144
I4937
sS'knight'
p4145
I4533
sS'joel'
p4146
I4725
sS'shock'
p4147
I1486
sS'min'
p4148
I5919
sS'choppy'
p4149
I5357
sS'joey'
p4150
I5250
sS'uncomfortable'
p4151
I3255
sS'depression'
p4152
I3917
sS'chicago'
p4153
I3504
sS'giving'
p4154
I722
sS'piper'
p4155
I5964
sS'access'
p4156
I4998
sS"director's"
p4157
I1820
sS'exercise'
p4158
I3179
sS'body'
p4159
I654
sS'exchange'
p4160
I4379
sS'objects'
p4161
I4969
sS'sink'
p4162
I5039
sS'others'
p4163
I391
sS'sing'
p4164
I1977
sS'irritating'
p4165
I2018
sS'extreme'
p4166
I1466
sS'talent'
p4167
I634
sS'30'
p4168
I1256
sS'35'
p4169
I5404
sS"1960's"
p4170
I5732
sS'proof'
p4171
I3056
sS'honor'
p4172
I3002
sS'composed'
p4173
I4213
sS'named'
p4174
I764
sS'private'
p4175
I1907
sS'names'
p4176
I1338
sS'composer'
p4177
I4816
sS'che'
p4178
I4622
sS'debbie'
p4179
I5862
sS'butler'
p4180
I4657
sS'themselves'
p4181
I522
sS'trail'
p4182
I3682
sS'train'
p4183
I1071
sS'ashamed'
p4184
I2939
sS'billed'
p4185
I5882
sS'iii'
p4186
I3700
sS'hints'
p4187
I4562
sS'account'
p4188
I2582
sS'f'
p4189
I2689
sS'tunnel'
p4190
I5804
sS'gabriel'
p4191
I5116
sS'hopkins'
p4192
I5925
sS'unreal'
p4193
I5135
sS'obvious'
p4194
I589
sS'praise'
p4195
I2481
sS'closing'
p4196
I2662
sS'continuity'
p4197
I2417
sS'e.g.'
p4198
I3395
sS'effectively'
p4199
I2522
sS'bones'
p4200
I4860
sS'native'
p4201
I2085
sS'daring'
p4202
I3606
sS'noises'
p4203
I5140
sS'holds'
p4204
I1694
sS'forest'
p4205
I2611
sS'stock'
p4206
I1792
sS'buildings'
p4207
I4161
sS'waters'
p4208
I3724
sS'act'
p4209
I496
sS'collection'
p4210
I1473
sS'bothered'
p4211
I2457
sS'sadistic'
p4212
I3730
sS'ambiguous'
p4213
I5205
sS'chasing'
p4214
I3195
sS'lines'
p4215
I408
sS'chief'
p4216
I2304
sS'furious'
p4217
I5638
sS'addiction'
p4218
I5154
sS'wedding'
p4219
I2047
sS'bunch'
p4220
I736
sS'bridges'
p4221
I4395
sS'le'
p4222
I2906
sS'la'
p4223
I1130
sS'winning'
p4224
I2000
sS'willing'
p4225
I1639
sS'criminal'
p4226
I1748
sS'<'
p4227
I8
sS'dad'
p4228
I1341
sS'greater'
p4229
I2581
sS'dan'
p4230
I2177
sS'spell'
p4231
I3975
sS'mention'
p4232
I727
sS'cutting'
p4233
I2497
sS'day'
p4234
I265
sS'stunts'
p4235
I3043
sS'thrill'
p4236
I4002
sS'warned'
p4237
I2685
sS'morris'
p4238
I4681
sS'uninteresting'
p4239
I2723
sS'warner'
p4240
I2940
sS'filmmaking'
p4241
I5674
sS'sexual'
p4242
I892
sS"/>that's"
p4243
I5596
sS'rex'
p4244
I4806
sS'defend'
p4245
I4653
sS'wholly'
p4246
I5375
sS'mate'
p4247
I4364
sS'red'
p4248
I853
sS'harold'
p4249
I4632
sS'jessica'
p4250
I3172
sS'frank'
p4251
I1265
sS'afterward'
p4252
I5631
sS'interaction'
p4253
I3553
sS'yard'
p4254
I5498
sS'south'
p4255
I1211
sS'finest'
p4256
I1890
sS'reaches'
p4257
I4066
sS'embarrassed'
p4258
I3012
sS'puppet'
p4259
I3614
sS'reached'
p4260
I3895
sS'ancient'
p4261
I2215
sS'sadly'
p4262
I1049
sS'monkey'
p4263
I3218
sS'vulgar'
p4264
I5597
sS'chased'
p4265
I4504
sS'chases'
p4266
I3240
sS'cabin'
p4267
I3466
sS'completed'
p4268
I5109
sS'nobody'
p4269
I1239
sS'dreary'
p4270
I4719
sS'loved'
p4271
I427
sS'loves'
p4272
I1316
sS'lover'
p4273
I1538
sS'flashes'
p4274
I5601
sS'kubrick'
p4275
I4672
sS'imaginative'
p4276
I3200
sS'wakes'
p4277
I5598
sS'comfortable'
p4278
I3780
sS'unlikely'
p4279
I2494
sS'have'
p4280
I29
sS'throat'
p4281
I4014
sS'apparently'
p4282
I669
sS'dallas'
p4283
I5805
sS'davies'
p4284
I4334
sS'montgomery'
p4285
I5654
sS'mix'
p4286
I1529
sS'concerns'
p4287
I3259
sS'relatively'
p4288
I2346
sS"where's"
p4289
I5363
sS'eight'
p4290
I2444
sS'prisoner'
p4291
I3879
sS'sally'
p4292
I3141
sS'stranded'
p4293
I4993
sS'nicholson'
p4294
I4825
sS'disease'
p4295
I3732
sS'absurd'
p4296
I1816
sS'occasion'
p4297
I4526
sS'normally'
p4298
I1806
sS'selection'
p4299
I5634
sS'text'
p4300
I3126
sS'supported'
p4301
I5399
sS'hamlet'
p4302
I3638
sS'staff'
p4303
I3510
sS'inspiring'
p4304
I3776
sS'knowledge'
p4305
I1783
sS'bernard'
p4306
I4881
sS'satan'
p4307
I3905
sS'communist'
p4308
I4608
sS'inferior'
p4309
I4756
sS'finger'
p4310
I3820
sS'exceptional'
p4311
I2993
sS'beat'
p4312
I1537
sS'photography'
p4313
I1277
sS'bear'
p4314
I2255
sS'bean'
p4315
I5100
sS'perfection'
p4316
I3063
sS'aforementioned'
p4317
I3889
sS'timing'
p4318
I2743
sS'areas'
p4319
I3558
sS'misguided'
p4320
I5889
sS'teams'
p4321
I5411
sS"won't"
p4322
I503
sS'exists'
p4323
I2927
sS'national'
p4324
I1835
sS'showdown'
p4325
I4912
sS'intensity'
p4326
I2982
sS'attempting'
p4327
I2790
sS'ralph'
p4328
I3320
sS'difficulties'
p4329
I5513
sS'bruno'
p4330
I3981
sS'routine'
p4331
I2420
sS'progress'
p4332
I4156
sS'superior'
p4333
I1697
sS'antics'
p4334
I3695
sS'empathy'
p4335
I5422
sS'instant'
p4336
I4155
sS'buster'
p4337
I4372
sS'joke'
p4338
I970
sS'taking'
p4339
I651
sS'equal'
p4340
I3174
sS'pulp'
p4341
I3363
sS'swim'
p4342
I5396
sS'passing'
p4343
I2726
sS'glorious'
p4344
I4568
sS'otherwise'
p4345
I874
sS'comment'
p4346
I913
sS'relevant'
p4347
I3355
sS'laugh'
p4348
I440
sS'mafia'
p4349
I4218
sS'tremendous'
p4350
I3442
sS"it's"
p4351
I49
sS'copies'
p4352
I4142
sS'ah'
p4353
I3921
sS'received'
p4354
I1993
sS'finished'
p4355
I1833
sS'tense'
p4356
I2944
sS'angles'
p4357
I2335
sS'bull'
p4358
I4638
sS'fellow'
p4359
I1596
sS'homer'
p4360
I5621
sS'atmospheric'
p4361
I3215
sS'plain'
p4362
I1027
sS'widescreen'
p4363
I4987
sS'appearance'
p4364
I1263
sS'value'
p4365
I1085
sS'frustrating'
p4366
I4460
sS'likable'
p4367
I1465
sS'almost'
p4368
I219
sS'helped'
p4369
I1577
sS'claimed'
p4370
I4643
sS'partner'
p4371
I1970
sS'inspector'
p4372
I3467
sS'portray'
p4373
I2009
sS'foxx'
p4374
I5191
sS'powell'
p4375
I3381
sS'injured'
p4376
I5261
sS'material'
p4377
I811
sS'novels'
p4378
I2883
sS'sisters'
p4379
I2097
sS'judgment'
p4380
I5685
sS'center'
p4381
I2179
sS'nevertheless'
p4382
I2180
sS'weapon'
p4383
I3014
sS'antonio'
p4384
I5008
sS'thought'
p4385
I197
sS'sets'
p4386
I717
sS'position'
p4387
I2598
sS'creators'
p4388
I3422
sS'soviet'
p4389
I3110
sS'latest'
p4390
I2345
sS'stores'
p4391
I5811
sS'executive'
p4392
I3918
sS'domestic'
p4393
I5366
sS'underlying'
p4394
I4429
sS'tough'
p4395
I1255
sS'griffith'
p4396
I5062
sS'lake'
p4397
I2329
sS'add'
p4398
I711
sS'citizen'
p4399
I3737
sS'niro'
p4400
I4966
sS'match'
p4401
I1023
sS'resolved'
p4402
I5639
sS'like'
p4403
I41
sS'success'
p4404
I990
sS'vibrant'
p4405
I5766
sS'journalist'
p4406
I4494
sS'chick'
p4407
I2195
sS'works'
p4408
I492
sS'soft'
p4409
I2299
sS'italian'
p4410
I1059
sS'classical'
p4411
I4015
sS'alive'
p4412
I1102
sS'hair'
p4413
I1124
sS'convey'
p4414
I2987
sS'recommendation'
p4415
I5130
sS'proper'
p4416
I2220
sS'happens'
p4417
I544
sS'unfunny'
p4418
I1974
sS'obsessed'
p4419
I2428
sS'unpredictable'
p4420
I5189
sS'corpse'
p4421
I3512
sS'assuming'
p4422
I5434
sS'screwed'
p4423
I5655
sS'noise'
p4424
I3505
sS'slight'
p4425
I3091
sS'stellar'
p4426
I4197
sS'lugosi'
p4427
I3716
sS'host'
p4428
I2854
sS'petty'
p4429
I5094
sS'although'
p4430
I258
sS'worthy'
p4431
I1573
sS'about'
p4432
I45
sS'actual'
p4433
I799
sS'justin'
p4434
I3989
sS'introduces'
p4435
I4104
sS'miscast'
p4436
I3317
sS'rendered'
p4437
I5297
sS'guard'
p4438
I2952
sS'female'
p4439
I659
sS'1987'
p4440
I5361
sS'1984'
p4441
I5354
sS'1982'
p4442
I5648
sS'1983'
p4443
I4991
sS'1980'
p4444
I4306
sS'1981'
p4445
I5298
sS'1988'
p4446
I5697
sS'1989'
p4447
I5776
sS'biggest'
p4448
I1098
sS'buy'
p4449
I776
sS'bus'
p4450
I2675
sS'brand'
p4451
I3396
sS'sequel'
p4452
I743
sS'but'
p4453
I22
sS'reminds'
p4454
I1711
sS'repeated'
p4455
I2585
sS'plague'
p4456
I3583
sS'editing'
p4457
I792
sS'bug'
p4458
I5817
sS'bud'
p4459
I5328
sS'partially'
p4460
I5714
sS'wise'
p4461
I2187
sS'glory'
p4462
I3187
sS'dangerous'
p4463
I1686
sS'j'
p4464
I2516
sS'minutes'
p4465
I229
sS'deaths'
p4466
I2532
sS'circus'
p4467
I4614
sS'4/10'
p4468
I2560
sS'topless'
p4469
I4480
sS'pig'
p4470
I5181
sS'shooting'
p4471
I1198
sS'pit'
p4472
I5305
sS'proceeds'
p4473
I4481
sS'dressed'
p4474
I1886
sS'45'
p4475
I3530
sS'claiming'
p4476
I5875
sS'detail'
p4477
I1506
sS'virtual'
p4478
I5155
sS'surreal'
p4479
I2221
sS'sandy'
p4480
I5773
sS'dresses'
p4481
I4971
sS'nelson'
p4482
I3728
sS'conveys'
p4483
I5867
sS'christians'
p4484
I5169
sS'resolution'
p4485
I3578
sS'baker'
p4486
I3923
sS'coherent'
p4487
I4204
sS'limited'
p4488
I1729
sS'hats'
p4489
I5567
sS'suspenseful'
p4490
I2423
sS'hitch'
p4491
I4757
sS'sleep'
p4492
I1656
sS'hate'
p4493
I745
sS'poorly'
p4494
I866
sS'paris'
p4495
I1351
sS'whatsoever'
p4496
I1565
sS'under'
p4497
I488
sS'pride'
p4498
I3347
sS'suburban'
p4499
I5774
sS'risk'
p4500
I2924
sS'rise'
p4501
I2185
sS'voice-over'
p4502
I4772
sS'every'
p4503
I171
sS'jack'
p4504
I697
sS'vastly'
p4505
I5904
sS'monkeys'
p4506
I4877
sS'encounter'
p4507
I2437
sS'school'
p4508
I382
sS"shakespeare's"
p4509
I5251
sS'loneliness'
p4510
I4712
sS'enjoy'
p4511
I349
sS'consistent'
p4512
I4198
sS'direct'
p4513
I1621
sS'nail'
p4514
I5175
sS'surrounding'
p4515
I3137
sS'street'
p4516
I921
sS'streep'
p4517
I4138
sS'shining'
p4518
I3874
sS'blue'
p4519
I1240
sS'hide'
p4520
I2425
sS'christ'
p4521
I3554
sS'beaten'
p4522
I3607
sS'revolves'
p4523
I2936
sS'poison'
p4524
I5602
sS'children'
p4525
I459
sS'reluctant'
p4526
I5696
sS'stooges'
p4527
I3746
sS'disney'
p4528
I1039
sS'kicked'
p4529
I4209
sS'hundreds'
p4530
I3131
sS'studio'
p4531
I1176
sS'represented'
p4532
I4731
sS'path'
p4533
I2624
sS'property'
p4534
I4809
sS'leaves'
p4535
I861
sS'changed'
p4536
I1160
sS'changes'
p4537
I1291
sS'punishment'
p4538
I4199
sS'julie'
p4539
I2147
sS'julia'
p4540
I2564
sS'feelings'
p4541
I1347
sS'patience'
p4542
I4766
sS'eastwood'
p4543
I3092
sS'would'
p4544
I63
sS'hospital'
p4545
I1410
sS'giallo'
p4546
I4257
sS'spike'
p4547
I3887
sS'preview'
p4548
I3995
sS'naive'
p4549
I2502
sS'robbins'
p4550
I5230
sS'phony'
p4551
I4663
sS'grief'
p4552
I5603
sS'phone'
p4553
I1587
sS'excellent'
p4554
I317
sS'must'
p4555
I220
sS'shoot'
p4556
I1268
sS'join'
p4557
I2784
sS'entertained'
p4558
I2244
sS'henry'
p4559
I1661
sS'ernest'
p4560
I5087
sS'my'
p4561
I58
sS'estate'
p4562
I4034
sS'mayhem'
p4563
I4984
sS'keep'
p4564
I387
sS'attract'
p4565
I5884
sS'guarantee'
p4566
I4572
sS'end'
p4567
I130
sS'returning'
p4568
I3260
sS'writers'
p4569
I955
sS'gate'
p4570
I4554
sS'badly'
p4571
I929
sS'poker'
p4572
I5686
sS'elizabeth'
p4573
I2489
sS'mess'
p4574
I938
sS'containing'
p4575
I5235
sS'demanding'
p4576
I5599
sS'jumping'
p4577
I3452
sS'parallel'
p4578
I4184
sS'danny'
p4579
I1725
sS'splendid'
p4580
I4114
sS'complexity'
p4581
I5049
sS'funniest'
p4582
I1492
sS'ultimate'
p4583
I2044
sS'enter'
p4584
I2278
sS'executed'
p4585
I2203
sS'interpretation'
p4586
I2886
sS'over'
p4587
I132
sS'expects'
p4588
I5845
sS'london'
p4589
I1302
sS'expectations'
p4590
I1384
sS'writing'
p4591
I489
sS'destroyed'
p4592
I2501
sS'tramp'
p4593
I5903
sS'compelling'
p4594
I1446
sS'eugene'
p4595
I5273
sS'tourist'
p4596
I4708
sS'rental'
p4597
I2233
sS'shadows'
p4598
I3328
sS'alex'
p4599
I2219
sS'chuck'
p4600
I2942
sS'filling'
p4601
I5504
sS'40s'
p4602
I5710
sS'victory'
p4603
I5198
sS'each'
p4604
I251
sS'lasting'
p4605
I5545
sS'diana'
p4606
I4934
sS'diane'
p4607
I3404
sS'ghosts'
p4608
I2978
sS'unexplained'
p4609
I5642
sS'saturday'
p4610
I2313
sS'driving'
p4611
I1762
sS'god'
p4612
I572
sS'psychic'
p4613
I4868
sS'laid'
p4614
I3333
sS'got'
p4615
I191
sS'newly'
p4616
I5367
sS'independence'
p4617
I5767
sS'eternal'
p4618
I5530
sS'free'
p4619
I946
sS'fred'
p4620
I2189
sS'masterpiece'
p4621
I904
sS'rain'
p4622
I2714
sS'wanted'
p4623
I455
sS'days'
p4624
I480
sS'outfits'
p4625
I5499
sS'heck'
p4626
I2111
sS'hopeless'
p4627
I4843
sS'onto'
p4628
I1551
sS'already'
p4629
I468
sS'primary'
p4630
I4094
sS'rank'
p4631
I4041
sS'hearing'
p4632
I2287
sS'lovable'
p4633
I3010
sS'fantasy'
p4634
I1061
sS'philosophical'
p4635
I4427
sS'relations'
p4636
I4458
sS'neighborhood'
p4637
I3402
sS'toy'
p4638
I3153
sS'top'
p4639
I404
sS'fiction'
p4640
I1229
sS'too'
p4641
I100
sS'tom'
p4642
I839
sS'carrey'
p4643
I4202
sS'insightful'
p4644
I5484
sS'urban'
p4645
I2590
sS'murder'
p4646
I590
sS'centered'
p4647
I5806
sS'grabs'
p4648
I5464
sS'serve'
p4649
I2684
sS'took'
p4650
I542
sS'western'
p4651
I908
sS'wardrobe'
p4652
I5274
sS'1979'
p4653
I5077
sS'roles'
p4654
I569
sS'classes'
p4655
I4343
sS'screenplay'
p4656
I906
sS'bridge'
p4657
I3144
sS'fashion'
p4658
I1584
sS'ran'
p4659
I2063
sS'1972'
p4660
I4523
sS'talking'
p4661
I687
sS'rat'
p4662
I4994
sS'rap'
p4663
I4344
sS'ray'
p4664
I1389
sS'triangle'
p4665
I4948
sS'1968'
p4666
I4786
sS'1969'
p4667
I5521
sS'thoroughly'
p4668
I1593
sS'snow'
p4669
I3047
sS'derek'
p4670
I4303
sS'laughed'
p4671
I1411
sS'rides'
p4672
I5264
sS"girl's"
p4673
I4130
sS'though'
p4674
I155
sS'plenty'
p4675
I951
sS'prostitute'
p4676
I3865
sS'treats'
p4677
I4444
sS'rogers'
p4678
I3468
sS'flop'
p4679
I4464
sS'flow'
p4680
I2745
sS'reputation'
p4681
I2570
sS'enterprise'
p4682
I4550
sS'entertaining'
p4683
I424
sS'inspire'
p4684
I5493
sS'saga'
p4685
I4741
sS'random'
p4686
I1427
sS'pops'
p4687
I4594
sS'colors'
p4688
I2537
sS'radio'
p4689
I1487
sS'musicals'
p4690
I3111
sS'earth'
p4691
I728
sS'spite'
p4692
I2707
sS'claude'
p4693
I4758
sS'situations'
p4694
I1112
sS'on-screen'
p4695
I4577
sS'disgust'
p4696
I5950
sS'gods'
p4697
I5980
sS'borrowed'
p4698
I4304
sS'mixture'
p4699
I3973
sS'watch'
p4700
I107
sS'despite'
p4701
I461
sS'report'
p4702
I4190
sS'countries'
p4703
I2955
sS'idiotic'
p4704
I3001
sS'twice'
p4705
I1438
sS'shots'
p4706
I637
sS'ruins'
p4707
I4080
sS'1960s'
p4708
I4688
sS'resist'
p4709
I4752
sS'demented'
p4710
I5444
sS'corrupt'
p4711
I3296
sS'disturbing'
p4712
I1184
sS'continually'
p4713
I5562
sS'grandmother'
p4714
I4131
sS'discovers'
p4715
I2086
sS'hopefully'
p4716
I2183
sS'approach'
p4717
I1476
sS'discovery'
p4718
I3475
sS'confusion'
p4719
I2932
sS'weak'
p4720
I833
sS'however'
p4721
I190
sS'boss'
p4722
I1441
sS'nightmares'
p4723
I4139
sS'wear'
p4724
I2573
sS'news'
p4725
I1437
sS'improve'
p4726
I4321
sS'faced'
p4727
I3273
sS'protect'
p4728
I2915
sS'fault'
p4729
I2049
sS'players'
p4730
I1819
sS'games'
p4731
I1583
sS'mildly'
p4732
I2592
sS'faces'
p4733
I1417
sS'sullivan'
p4734
I4744
sS'karen'
p4735
I3077
sS'trust'
p4736
I1690
sS'hitler'
p4737
I2533
sS'comical'
p4738
I2830
sS'bathroom'
p4739
I3834
sS'been'
p4740
I78
sS'quickly'
p4741
I918
sS'beer'
p4742
I3308
sS'spread'
p4743
I4652
sS'expected'
p4744
I843
sS'drugs'
p4745
I1444
sS'speeches'
p4746
I5948
sS'craft'
p4747
I3817
sS'catch'
p4748
I1297
sS'n'
p4749
I3090
sS'lesser'
p4750
I3295
sS'teachers'
p4751
I5025
sS'stopping'
p4752
I5763
sS'natives'
p4753
I5609
sS'provocative'
p4754
I5675
sS"50's"
p4755
I3604
sS'brutal'
p4756
I1718
sS'camera-work'
p4757
I3916
sS'suggest'
p4758
I1428
sS'wound'
p4759
I4488
sS'beside'
p4760
I5610
sS'complex'
p4761
I1260
sS'several'
p4762
I438
sS'unbearable'
p4763
I3913
sS'pick'
p4764
I1206
sS'characters'
p4765
I105
sS'mentioning'
p4766
I4324
sS'dylan'
p4767
I4962
sS'shortly'
p4768
I3374
sS"mother's"
p4769
I4193
sS'charlie'
p4770
I1409
sS'possessed'
p4771
I3476
sS'ocean'
p4772
I3496
sS'greatest'
p4773
I786
sS'mother'
p4774
I430
sS'hearts'
p4775
I3165
sS'jean'
p4776
I1777
sS'snowman'
p4777
I5640
sS'thumbs'
p4778
I3657
sS'campbell'
p4779
I4053
sS'bourne'
p4780
I4282
sS'teenager'
p4781
I2156
sS'pitiful'
p4782
I4598
sS'humanity'
p4783
I1846
sS'gave'
p4784
I506
sS'actresses'
p4785
I1614
sS'casting'
p4786
I1041
sS'bands'
p4787
I4753
sS'breaks'
p4788
I2025
sS'cultural'
p4789
I2860
sS'judge'
p4790
I1671
sS'burns'
p4791
I3118
sS'advanced'
p4792
I5013
sS'apart'
p4793
I968
sS'melting'
p4794
I5885
sS'appearing'
p4795
I3115
sS'brutality'
p4796
I5412
sS'gift'
p4797
I3681
sS'hunt'
p4798
I2334
sS'50'
p4799
I2165
sS'specific'
p4800
I3186
sS'officer'
p4801
I1797
sS'hung'
p4802
I4811
sS'gifted'
p4803
I4760
sS'stereotype'
p4804
I4018
sS'successfully'
p4805
I3121
sS'jennifer'
p4806
I1933
sS'donald'
p4807
I2436
sS'escape'
p4808
I1019
sS'cooper'
p4809
I3035
sS'ice'
p4810
I2088
sS'everything'
p4811
I266
sS'christmas'
p4812
I1131
sS'overrated'
p4813
I4263
sS'core'
p4814
I2273
sS'deleted'
p4815
I5590
sS'corn'
p4816
I5801
sS'disappeared'
p4817
I4341
sS'chapter'
p4818
I4707
sS'cowboy'
p4819
I2878
sS'attacks'
p4820
I2856
sS'p.s.'
p4821
I5660
sS'dinner'
p4822
I2735
sS'misleading'
p4823
I5167
sS'plus'
p4824
I911
sS'efforts'
p4825
I1859
sS'duke'
p4826
I3907
sS'primitive'
p4827
I5299
sS'presence'
p4828
I1270
sS'civil'
p4829
I2739
sS'puzzle'
p4830
I5632
sS'bath'
p4831
I4676
sS'existed'
p4832
I4042
sS'rely'
p4833
I4839
sS'akshay'
p4834
I5874
sS'class'
p4835
I816
sS'stuck'
p4836
I1542
sS'anderson'
p4837
I2575
sS'fought'
p4838
I4457
sS'questionable'
p4839
I4907
sS'head'
p4840
I419
sS'medium'
p4841
I3588
sS'amateur'
p4842
I2441
sS'abysmal'
p4843
I4270
sS'attempted'
p4844
I3093
sS'6'
p4845
I1374
sS'heat'
p4846
I3535
sS'uncle'
p4847
I1802
sS'removed'
p4848
I3860
sS'versions'
p4849
I2316
sS'heartwarming'
p4850
I5355
sS'bargain'
p4851
I5177
sS'ruined'
p4852
I2297
sS'trio'
p4853
I3876
sS'fury'
p4854
I5911
sS'sometime'
p4855
I5216
sS'acclaimed'
p4856
I5478
sS'believable'
p4857
I817
sS'shines'
p4858
I3164
sS'annoying'
p4859
I624
sS'check'
p4860
I795
sS'constructed'
p4861
I4210
sS'blatantly'
p4862
I5954
sS'faithful'
p4863
I2816
sS'no'
p4864
I59
sS'whereas'
p4865
I2919
sS'when'
p4866
I54
sS'tim'
p4867
I1633
sS'setting'
p4868
I944
sS'clich\xc3\xa9'
p4869
I1588
sS'tie'
p4870
I4315
sS'eternity'
p4871
I5880
sS'picture'
p4872
I431
sS'football'
p4873
I2066
sS'uniformly'
p4874
I5841
sS'pg-13'
p4875
I5092
sS'trailers'
p4876
I4258
sS"family's"
p4877
I5064
sS'younger'
p4878
I1099
sS'longer'
p4879
I1122
sS'bullet'
p4880
I4383
sS'vietnam'
p4881
I2453
sS'serious'
p4882
I597
sS'neighbors'
p4883
I4913
sS'coach'
p4884
I3103
sS'remarkable'
p4885
I1738
sS'impression'
p4886
I1335
sS'rob'
p4887
I2212
sS'rod'
p4888
I5413
sS'focus'
p4889
I1140
sS'leads'
p4890
I823
sS'roy'
p4891
I2554
sS'marion'
p4892
I4558
sS'/'
p4893
I10
sS'remarkably'
p4894
I4544
sS'row'
p4895
I3129
sS'meryl'
p4896
I4738
sS'1945'
p4897
I5860
sS'environment'
p4898
I2633
sS'charge'
p4899
I2749
sS'discovering'
p4900
I4770
sS'advantage'
p4901
I3024
sS'sloppy'
p4902
I3924
sS'cook'
p4903
I3757
sS'li'
p4904
I5712
sS'heston'
p4905
I5477
sS'cool'
p4906
I592
sS'impressive'
p4907
I1157
sS'policeman'
p4908
I5345
sS'brother'
p4909
I642
sS'standards'
p4910
I1545
sS'quick'
p4911
I1611
sS'says'
p4912
I537
sS'porn'
p4913
I1541
sS'trend'
p4914
I5105
sS'colin'
p4915
I4745
sS'fear'
p4916
I1109
sS'drinks'
p4917
I5379
sS'stands'
p4918
I1342
sS'debate'
p4919
I5164
sS'goes'
p4920
I268
sS'scripted'
p4921
I3762
sS'water'
p4922
I987
sS'entertain'
p4923
I2738
sS'witch'
p4924
I1915
sS'groups'
p4925
I3882
sS'standout'
p4926
I5894
sS'thirty'
p4927
I3491
sS'healthy'
p4928
I5702
sS'guilty'
p4929
I2379
sS"/>there's"
p4930
I3041
sS'weird'
p4931
I920
sS'humour'
p4932
I1161
sS'compare'
p4933
I1570
sS'1st'
p4934
I3368
sS'crisis'
p4935
I3343
sS'handled'
p4936
I2431
sS'sports'
p4937
I2367
sS'andy'
p4938
I2087
sS'memory'
p4939
I1652
sS'australian'
p4940
I2075
sS'today'
p4941
I606
sS'riot'
p4942
I5518
sS'cases'
p4943
I3038
sS'local'
p4944
I694
sS'ms.'
p4945
I1770
sS'judy'
p4946
I5027
sS'laughter'
p4947
I2118
sS'slightest'
p4948
I3883
sS'performer'
p4949
I4134
sS'figure'
p4950
I831
sS'critic'
p4951
I3708
sS'dropped'
p4952
I3348
sS'swedish'
p4953
I3654
sS'sidney'
p4954
I3344
sS'watching'
p4955
I149
sS'1'
p4956
I493
sS'vital'
p4957
I5624
sS'fourth'
p4958
I2849
sS'speaks'
p4959
I2383
sS'unbelievable'
p4960
I1321
sS'crashes'
p4961
I5418
sS'huge'
p4962
I629
sS'heartbreaking'
p4963
I5101
sS'birthday'
p4964
I3138
sS'unbelievably'
p4965
I3875
sS'succeeded'
p4966
I4144
sS'representation'
p4967
I5334
sS'comfort'
p4968
I4995
sS'mainly'
p4969
I1383
sS'apes'
p4970
I4542
sS'wallace'
p4971
I3731
sS"he's"
p4972
I239
sS"he'd"
p4973
I2741
sS'offers'
p4974
I1513
sS'hanks'
p4975
I3752
sS'happened'
p4976
I585
sS'lonely'
p4977
I2727
sS'conversations'
p4978
I3796
sS'underneath'
p4979
I5505
sS'hamilton'
p4980
I4555
sS'caine'
p4981
I3201
sS'wagon'
p4982
I4919
sS'term'
p4983
I2746
sS'name'
p4984
I392
sS'opera'
p4985
I1361
sS'academy'
p4986
I1788
sS'possibilities'
p4987
I4578
sS'realistic'
p4988
I798
sS'rangers'
p4989
I5941
sS'realise'
p4990
I3515
sS'eighties'
p4991
I4132
sS'realism'
p4992
I1840
sS'catching'
p4993
I4957
sS'obsession'
p4994
I3098
sS'plans'
p4995
I2298
sS'ultimately'
p4996
I1132
sS"america's"
p4997
I4733
sS'factory'
p4998
I3561
sS'attracted'
p4999
I3423
sS"shouldn't"
p5000
I1550
sS'theory'
p5001
I2660
sS'hulk'
p5002
I5881
sS'previews'
p5003
I5508
sS'100%'
p5004
I3968
sS'motion'
p5005
I1454
sS'turn'
p5006
I477
sS'place'
p5007
I275
sS'futuristic'
p5008
I4579
sS'childhood'
p5009
I1607
sS'blood'
p5010
I552
sS'origin'
p5011
I5338
sS'suspend'
p5012
I5436
sS'surviving'
p5013
I4686
sS'symbolic'
p5014
I5193
sS'awfully'
p5015
I4882
sS'clumsy'
p5016
I3991
sS'george'
p5017
I730
sS'millions'
p5018
I3036
sS'rented'
p5019
I1522
sS'given'
p5020
I352
sS'ian'
p5021
I3734
sS'virgin'
p5022
I3630
sS'plastic'
p5023
I3054
sS'returns'
p5024
I1575
sS'terrifying'
p5025
I3643
sS'bounty'
p5026
I5737
sS'white'
p5027
I481
sS'gives'
p5028
I403
sS'exploring'
p5029
I5509
sS'releases'
p5030
I4963
sS'cope'
p5031
I5388
sS'season'
p5032
I865
sS'huh'
p5033
I3783
sS'alan'
p5034
I1795
sS'cops'
p5035
I1470
sS'alas'
p5036
I3025
sS'shirley'
p5037
I4419
sS'copy'
p5038
I942
sS'population'
p5039
I4070
sS'wide'
p5040
I2120
sS'unfortunately'
p5041
I474
sS'require'
p5042
I5123
sS'computer'
p5043
I1313
sS'cards'
p5044
I4008
sS'outcome'
p5045
I3600
sS'and'
p5046
I3
sS'ann'
p5047
I2235
sS'mates'
p5048
I5836
sS'suspense'
p5049
I773
sS'rent'
p5050
I826
sS'any'
p5051
I103
sS'superman'
p5052
I2646
sS'ideas'
p5053
I993
sS'phillips'
p5054
I5262
sS'ideal'
p5055
I3922
sS'animation'
p5056
I827
sS'strengths'
p5057
I5843
sS'blunt'
p5058
I5676
sS'urge'
p5059
I4255
sS'sure'
p5060
I249
sS'multiple'
p5061
I2602
sS'betrayal'
p5062
I4889
sS'falls'
p5063
I733
sS'icon'
p5064
I5217
sS'considered'
p5065
I1192
sS'proud'
p5066
I2519
sS'hungry'
p5067
I5344
sS'hear'
p5068
I825
sS"80's"
p5069
I1204
sS'detective'
p5070
I1366
sS'cheap'
p5071
I689
sS'hack'
p5072
I4898
sS'spacey'
p5073
I4689
sS'genius'
p5074
I1174
sS'written'
p5075
I436
sS'crime'
p5076
I837
sS'wood'
p5077
I1732
sS'believing'
p5078
I3545
sS'jazz'
p5079
I3821
sS'neither'
p5080
I1079
sS'reveal'
p5081
I2464
sS'regarding'
p5082
I2643
sS'dramas'
p5083
I3219
sS'naked'
p5084
I1269
sS'jokes'
p5085
I619
sS'bought'
p5086
I1194
sS'discussing'
p5087
I5759
sS'ignored'
p5088
I3319
sS'connections'
p5089
I5687
sS'college'
p5090
I1120
sS'stanley'
p5091
I3593
sS'#1'
p5092
I5339
sS'fails'
p5093
I986
sS'ways'
p5094
I751
sS'subsequent'
p5095
I3580
sS'review'
p5096
I705
sS'definite'
p5097
I3548
sS'weapons'
p5098
I2584
sS'outside'
p5099
I981
sS'arrival'
p5100
I4682
sS'25'
p5101
I2888
sS'guitar'
p5102
I4817
sS'20'
p5103
I992
sS'cities'
p5104
I5040
sS'come'
p5105
I216
sS'reaction'
p5106
I2033
sS'region'
p5107
I5088
sS'quiet'
p5108
I1934
sS'contract'
p5109
I4158
sS'duty'
p5110
I3740
sS'afterwards'
p5111
I3611
sS'color'
p5112
I1442
sS'pot'
p5113
I5222
sS'period'
p5114
I821
sS'pop'
p5115
I1684
sS'60'
p5116
I4439
sS'bizarre'
p5117
I1128
sS'nicole'
p5118
I4145
sS'turkey'
p5119
I2363
sS'howard'
p5120
I1903
sS'filmmakers'
p5121
I1022
sS'helicopter'
p5122
I4245
sS'featuring'
p5123
I1935
sS'hardly'
p5124
I1011
sS'direction'
p5125
I460
sS'tasteless'
p5126
I5265
sS'designed'
p5127
I2667
sS'andrew'
p5128
I3763
sS'tiger'
p5129
I5303
sS'minister'
p5130
I5419
sS'careful'
p5131
I4435
sS'irrelevant'
p5132
I4448
sS'spirit'
p5133
I1149
sS'pilot'
p5134
I1901
sS'case'
p5135
I417
sS'myself'
p5136
I525
sS'cash'
p5137
I2167
sS'arnold'
p5138
I3393
sS'cast'
p5139
I179
sS'50s'
p5140
I4266
sS'coupled'
p5141
I5781
sS'couples'
p5142
I4366
sS'good'
p5143
I53
sS'ironic'
p5144
I2972
sS'vivid'
p5145
I4223
sS'author'
p5146
I2200
sS'granted'
p5147
I2426
sS'reminded'
p5148
I1519
sS'trip'
p5149
I1210
sS'events'
p5150
I698
sS'moronic'
p5151
I5231
sS'week'
p5152
I1245
sS'persona'
p5153
I3664
sS'driver'
p5154
I2281
sS'drives'
p5155
I2845
sS'producers'
p5156
I1133
sS'devoid'
p5157
I3806
sS'drivel'
p5158
I3786
sS'delicate'
p5159
I5370
sS'statue'
p5160
I5218
sS'changing'
p5161
I2671
sS'cartoon'
p5162
I1060
sS'relies'
p5163
I4016
sS'eerie'
p5164
I3398
sS'magical'
p5165
I2621
sS'melodramatic'
p5166
I3327
sS'without'
p5167
I204
sS'relief'
p5168
I2098
sS'inability'
p5169
I5141
sS'model'
p5170
I2241
sS'commercials'
p5171
I3465
sS'bodies'
p5172
I2116
sS'justify'
p5173
I4248
sS'captures'
p5174
I2388
sS'actions'
p5175
I1594
sS'violent'
p5176
I1116
sS'kill'
p5177
I498
sS'harrison'
p5178
I5245
sS'polish'
p5179
I5196
sS'baldwin'
p5180
I4619
sS'captured'
p5181
I1763
sS'halfway'
p5182
I2733
sS'blow'
p5183
I2372
sS'hint'
p5184
I3059
sS"we've"
p5185
I2001
sS"everyone's"
p5186
I4100
sS'seems'
p5187
I185
sS'except'
p5188
I546
sS'lets'
p5189
I1525
sS'blob'
p5190
I5707
sS'ross'
p5191
I4856
sS'styles'
p5192
I4166
sS'kills'
p5193
I1139
sS'virginia'
p5194
I4617
sS'accepted'
p5195
I2853
sS'kennedy'
p5196
I3226
sS'patrick'
p5197
I2318
sS'buddies'
p5198
I3946
sS'oddly'
p5199
I3080
sS'reduced'
p5200
I4011
sS'competition'
p5201
I3251
sS'calling'
p5202
I2405
sS'respect'
p5203
I1166
sS'redeeming'
p5204
I1673
sS'provided'
p5205
I2077
sS'slice'
p5206
I5522
sS'mood'
p5207
I1223
sS'highest'
p5208
I3992
sS'slick'
p5209
I4235
sS'stops'
p5210
I2999
sS'moon'
p5211
I1743
sS'provides'
p5212
I1532
sS'poem'
p5213
I5471
sS'nails'
p5214
I5912
sS'communicate'
p5215
I5546
sS'slaughter'
p5216
I5081
sS'terrified'
p5217
I5802
sS'stereotypes'
p5218
I1947
sS'_'
p5219
I0
sS'on'
p5220
I24
sS'ol'
p5221
I5851
sS'ok'
p5222
I573
sS'oh'
p5223
I437
sS'of'
p5224
I5
sS'oz'
p5225
I3105
sS'or'
p5226
I42
sS'tribe'
p5227
I4869
sS'ladies'
p5228
I2046
sS'reactions'
p5229
I3483
sS'bbc'
p5230
I2381
sS'rising'
p5231
I4249
sS'gary'
p5232
I1898
sS'burton'
p5233
I3551
sS'strictly'
p5234
I3717
sS'there'
p5235
I50
sS'racism'
p5236
I2744
sS'christianity'
p5237
I5985
sS'racist'
p5238
I2793
sS'valley'
p5239
I3750
sS'energy'
p5240
I1667
sS'regard'
p5241
I2996
sS'amongst'
p5242
I2777
sS'promote'
p5243
I5952
sS'faster'
p5244
I4508
sS'sleaze'
p5245
I4996
sS'l.a.'
p5246
I5160
sS'grasp'
p5247
I4516
sS'sleazy'
p5248
I2953
sS'strongly'
p5249
I2201
sS'toilet'
p5250
I3388
sS'taylor'
p5251
I2068
sS'cinema'
p5252
I443
sS'taste'
p5253
I1249
sS'felix'
p5254
I4764
sS'britain'
p5255
I3427
sS'politics'
p5256
I2500
sS'spends'
p5257
I2337
sS'stumbled'
p5258
I5187
sS'idiot'
p5259
I2427
sS'deserve'
p5260
I1695
sS'rubber'
p5261
I4367
sS'5'
p5262
I670
sS'stumbles'
p5263
I5949
sS'trash'
p5264
I1187
sS'briefly'
p5265
I3146
sS'championship'
p5266
I5662
sS'separate'
p5267
I2838
sS'spoilers'
p5268
I1379
sS'finale'
p5269
I1942
sS'includes'
p5270
I1715
sS'lovers'
p5271
I1808
sS'bullets'
p5272
I3896
sS'included'
p5273
I1888
sS'psychology'
p5274
I5516
sS'calls'
p5275
I1703
sS'wife'
p5276
I334
sS'streisand'
p5277
I4988
sS'odds'
p5278
I3972
sS'directors'
p5279
I961
sS'undead'
p5280
I5390
sS'all'
p5281
I34
sS'chinese'
p5282
I1705
sS'ali'
p5283
I4605
sS'lack'
p5284
I566
sS'disc'
p5285
I4056
sS'follow'
p5286
I856
sS'decisions'
p5287
I3982
sS'glimpse'
p5288
I3232
sS'apartment'
p5289
I1634
sS'ron'
p5290
I2908
sS'homage'
p5291
I3206
sS'subjected'
p5292
I5286
sS'opportunities'
p5293
I5428
sS'aaron'
p5294
I4890
sS'program'
p5295
I1996
sS'depending'
p5296
I5825
sS'presentation'
p5297
I3021
sS'activities'
p5298
I4844
sS'woman'
p5299
I259
sS'worse'
p5300
I423
sS'song'
p5301
I601
sS'far'
p5302
I232
sS'fat'
p5303
I1708
sS'simpsons'
p5304
I5329
sS'sons'
p5305
I3482
sS'worst'
p5306
I247
sS'***'
p5307
I3239
sS'awful'
p5308
I375
sS'ticket'
p5309
I3897
sS'uwe'
p5310
I5137
sS'sentimental'
p5311
I3387
sS'list'
p5312
I1051
sS'grandfather'
p5313
I3697
sS'lisa'
p5314
I2864
sS'programme'
p5315
I5677
sS'flick'
p5316
I495
sS'rats'
p5317
I5818
sS'ten'
p5318
I721
sS'tea'
p5319
I3901
sS'ted'
p5320
I2644
sS'dalton'
p5321
I5431
sS'rate'
p5322
I1088
sS'design'
p5323
I1683
sS'nbc'
p5324
I5408
sS'what'
p5325
I52
sS'pathetic'
p5326
I1123
sS'sun'
p5327
I2596
sS'sum'
p5328
I2937
sS'brief'
p5329
I1365
sS'crush'
p5330
I4696
sS'version'
p5331
I318
sS'attitudes'
p5332
I4503
sS'racing'
p5333
I5688
sS'guns'
p5334
I1923
sS'layers'
p5335
I5899
sS'christian'
p5336
I1568
sS'supposedly'
p5337
I1455
sS'behaviour'
p5338
I4670
sS'andrews'
p5339
I3184
sS'directions'
p5340
I5168
sS'tragedy'
p5341
I1585
sS'difficulty'
p5342
I5824
sS'allows'
p5343
I2162
sS'sticking'
p5344
I5819
sS'thankfully'
p5345
I2480
sS'suddenly'
p5346
I1089
sS'screens'
p5347
I5356
sS'minor'
p5348
I1363
sS'horses'
p5349
I3264
sS'flat'
p5350
I1082
sS'flaw'
p5351
I3006
sS'knows'
p5352
I665
sS'hoffman'
p5353
I2990
sS'stick'
p5354
I1242
sS'known'
p5355
I607
sS'glad'
p5356
I1213
sS'v'
p5357
I4771
sS'audiences'
p5358
I1191
sS'atrocious'
p5359
I2635
sS'challenging'
p5360
I4564
sS"/>don't"
p5361
I2721
sS'imitation'
p5362
I4975
sS'airplane'
p5363
I3842
sS'influenced'
p5364
I3959
sS'court'
p5365
I2863
sS'goal'
p5366
I3539
sS'desperation'
p5367
I4583
sS'rather'
p5368
I248
sS'breaking'
p5369
I2458
sS'occasionally'
p5370
I1850
sS'explains'
p5371
I2628
sS'simplicity'
p5372
I5056
sS'okay'
p5373
I787
sS'weaknesses'
p5374
I5643
sS'reflect'
p5375
I4396
sS'lighting'
p5376
I1472
sS'adventure'
p5377
I1232
sS'shortcomings'
p5378
I5635
sS'short'
p5379
I337
sS'susan'
p5380
I2769
sS'shore'
p5381
I5945
sS"don't"
p5382
I93
sS'september'
p5383
I5568
sS'essence'
p5384
I3199
sS'mission'
p5385
I1826
sS'scientist'
p5386
I1635
sS'style'
p5387
I429
sS'pray'
p5388
I5895
sS'harmless'
p5389
I5128
sS'strange'
p5390
I672
sS'stephen'
p5391
I1740
sS'soccer'
p5392
I4734
sS'might'
p5393
I233
sS'somebody'
p5394
I1798
sS'hunter'
p5395
I2070
sS'predator'
p5396
I3519
sS'number'
p5397
I616
sS'bollywood'
p5398
I2869
sS'bigger'
p5399
I1879
sS'level'
p5400
I681
sS'friendship'
p5401
I1736
sS'weight'
p5402
I3316
sS'needless'
p5403
I3068
sS'stiller'
p5404
I5401
sS'expect'
p5405
I516
sS'alcohol'
p5406
I4873
sS'wondered'
p5407
I3644
sS'health'
p5408
I3336
sS'hill'
p5409
I2398
sS'paradise'
p5410
I5503
sS'rambo'
p5411
I5813
sS'friday'
p5412
I2395
sS'forgive'
p5413
I3362
sS'teach'
p5414
I3185
sS'thrown'
p5415
I1304
sS'thread'
p5416
I5550
sS'e.i'
p5417
I5111
sS"year's"
p5418
I4702
sS'prejudice'
p5419
I4599
sS'threat'
p5420
I3524
sS'twenty'
p5421
I2015
sS'fallen'
p5422
I2983
sS'throws'
p5423
I2712
sS'feed'
p5424
I5199
sS'feel'
p5425
I237
sS'relate'
p5426
I1940
sS'fancy'
p5427
I3620
sS'feet'
p5428
I1945
sS'sympathy'
p5429
I2371
sS'revolution'
p5430
I2894
sS'blank'
p5431
I4135
sS'bland'
p5432
I1884
sS'passes'
p5433
I4093
sS'story'
p5434
I69
sS'script'
p5435
I230
sS'leading'
p5436
I975
sS'interviews'
p5437
I2561
sS'endearing'
p5438
I3384
sS'storm'
p5439
I2991
sS'store'
p5440
I1084
sS'option'
p5441
I5604
sS'hotel'
p5442
I1552
sS'luckily'
p5443
I3471
sS'convinced'
p5444
I2630
sS'uncut'
p5445
I5873
sS'king'
p5446
I765
sS'kind'
p5447
I243
sS'double'
p5448
I1727
sS'outrageous'
p5449
I3246
sS'stale'
p5450
I4922
sS'dana'
p5451
I5986
sS'motivation'
p5452
I3513
sS'storytelling'
p5453
I2837
sS'outstanding'
p5454
I1360
sS'suspicious'
p5455
I4742
sS'garfield'
p5456
I4759
sS'alike'
p5457
I3626
sS'hopelessly'
p5458
I5427
sS'nights'
p5459
I3000
sS'rochester'
p5460
I5423
sS'finding'
p5461
I1422
sS'buff'
p5462
I4316
sS'added'
p5463
I1214
sS'electric'
p5464
I4624
sS'mentality'
p5465
I5816
sS'reach'
p5466
I2010
sS'react'
p5467
I4584
sS'70'
p5468
I5290
sS'nothing'
p5469
I162
sS'seasons'
p5470
I2451
sS'screenwriter'
p5471
I3013
sS'achievement'
p5472
I3668
sS'windows'
p5473
I5861
sS'traditional'
p5474
I2175
sS'notch'
p5475
I3265
sS'lying'
p5476
I3084
sS'fond'
p5477
I4171
sS'excessive'
p5478
I4871
sS'cried'
p5479
I3532
sS'grotesque'
p5480
I4883
sS'fulci'
p5481
I3437
sS'hip'
p5482
I3559
sS'his'
p5483
I28
sS'hit'
p5484
I638
sS'rose'
p5485
I2262
sS'him'
p5486
I90
sS'timeless'
p5487
I3645
sS'investigate'
p5488
I3812
sS'cartoons'
p5489
I2290
sS'vincent'
p5490
I2933
sS'cringe'
p5491
I4146
sS'wrote'
p5492
I1080
sS'bars'
p5493
I5466
sS'art'
p5494
I534
sS'achieved'
p5495
I3155
sS'intelligence'
p5496
I1657
sS'choreographed'
p5497
I5110
sS'defense'
p5498
I4746
sS'bare'
p5499
I3713
sS'are'
p5500
I27
sS'cleverly'
p5501
I4547
sS'arm'
p5502
I2879
sS'youth'
p5503
I1976
sS'learns'
p5504
I2308
sS'various'
p5505
I949
sS"other's"
p5506
I4952
sS'numerous'
p5507
I1876
sS'corruption'
p5508
I4456
sS'solo'
p5509
I4169
sS'latin'
p5510
I5435
sS'recently'
p5511
I1007
sS'creating'
p5512
I1805
sS'initially'
p5513
I2690
sS'sold'
p5514
I2992
sS'attention'
p5515
I683
sS'outfit'
p5516
I4618
sS'succeed'
p5517
I2989
sS'competent'
p5518
I3167
sS'c'
p5519
I1966
sS'roman'
p5520
I3861
sS'became'
p5521
I868
sS'context'
p5522
I1995
sS'baseball'
p5523
I2729
sS'finds'
p5524
I678
sS'albeit'
p5525
I2905
sS'flies'
p5526
I4149
sS'reasons'
p5527
I971
sS'sweet'
p5528
I1101
sS'village'
p5529
I1983
sS'decline'
p5530
I5994
sS'duo'
p5531
I4054
sS'overlook'
p5532
I5252
sS'political'
p5533
I1000
sS'due'
p5534
I679
sS'teacher'
p5535
I1644
sS'whom'
p5536
I903
sS'pg'
p5537
I5429
sS'make-up'
p5538
I2409
sS'flight'
p5539
I2600
sS'1950s'
p5540
I3168
sS'buck'
p5541
I3370
sS'well-made'
p5542
I5868
sS'vaguely'
p5543
I4791
sS'demand'
p5544
I4625
sS'stolen'
p5545
I2555
sS'frozen'
p5546
I5752
sS'behavior'
p5547
I1878
sS'demon'
p5548
I2619
sS'rip'
p5549
I2682
sS'disappointing'
p5550
I1287
sS'quaid'
p5551
I5219
sS'rid'
p5552
I3453
sS'lengthy'
p5553
I5171
sS'shirt'
p5554
I4278
sS'widely'
p5555
I5138
sS'peoples'
p5556
I4563
sS'9'
p5557
I1369
sS'advise'
p5558
I4219
sS'daughters'
p5559
I3028
sS'higher'
p5560
I1971
sS'arrives'
p5561
I2625
sS'huston'
p5562
I5223
sS'moving'
p5563
I734
sS'lower'
p5564
I2507
sS'cheek'
p5565
I5738
sS'anybody'
p5566
I1706
sS'analysis'
p5567
I5078
sS'edgy'
p5568
I4862
sS'edge'
p5569
I1289
sS'abilities'
p5570
I3655
sS'questions'
p5571
I1147
sS'regardless'
p5572
I2935
sS'prince'
p5573
I2288
sS'gems'
p5574
I5188
sS'morals'
p5575
I5481
sS'workers'
p5576
I4165
sS'complaint'
p5577
I3727
sS'dvds'
p5578
I4906
sS'moody'
p5579
I4566
sS'admittedly'
p5580
I3438
sS'ignore'
p5581
I2724
sS'arthur'
p5582
I1807
sS'essential'
p5583
I3254
sS'understood'
p5584
I2703
sS'clown'
p5585
I4151
sS'gradually'
p5586
I3778
sS'prom'
p5587
I4945
sS'tends'
p5588
I4365
sS'anne'
p5589
I1856
sS'anna'
p5590
I2306
sS'jumps'
p5591
I3117
sS'martin'
p5592
I1485
sS'refused'
p5593
I4735
sS'zombie'
p5594
I1030
sS'refuses'
p5595
I3145
sS'intense'
p5596
I1500
sS'russell'
p5597
I2603
sS'virus'
p5598
I3569
sS'lifeless'
p5599
I5541
sS'range'
p5600
I2011
sS'dialog'
p5601
I713
sS'hatred'
p5602
I3758
sS'wanna'
p5603
I3257
sS'credible'
p5604
I2885
sS'elvira'
p5605
I5918
sS'impressed'
p5606
I1459
sS'lone'
p5607
I3286
sS'long'
p5608
I205
sS"we're"
p5609
I1052
sS'prey'
p5610
I4790
sS'mountains'
p5611
I4205
sS'lemmon'
p5612
I4915
sS'repeatedly'
p5613
I3289
sS'junior'
p5614
I4259
sS'raising'
p5615
I5467
sS"hasn't"
p5616
I1521
sS'highlight'
p5617
I2565
sS'landscapes'
p5618
I4916
sS'called'
p5619
I476
sS'associated'
p5620
I3527
sS'worthwhile'
p5621
I2390
sS'cover'
p5622
I1002
sS'warning'
p5623
I1767
sS'graham'
p5624
I4671
sS'peace'
p5625
I2400
sS'nick'
p5626
I2004
sS'nice'
p5627
I330
sS'muddled'
p5628
I5126
sS'problems'
p5629
I685
sS'breasts'
p5630
I3439
sS'helping'
p5631
I2810
sS'generated'
p5632
I5312
sS'allowing'
p5633
I3497
sS'posters'
p5634
I5563
sS'suffers'
p5635
I2413
sS'vice'
p5636
I5009
sS'attacking'
p5637
I5798
sS'demonstrates'
p5638
I5267
sS'buffalo'
p5639
I5768
sS'once'
p5640
I283
sS'alien'
p5641
I1185
sS'gang'
p5642
I1201
sS'winds'
p5643
I3998
sS'issues'
p5644
I1228
sS'simon'
p5645
I2597
sS'include'
p5646
I1424
sS'snipes'
p5647
I5575
sS'wished'
p5648
I4484
sS'mainstream'
p5649
I2530
sS'wishes'
p5650
I3221
sS'drinking'
p5651
I2819
sS'incoherent'
p5652
I3536
sS'notes'
p5653
I3555
sS'deals'
p5654
I1910
sS'dealt'
p5655
I3248
sS'noted'
p5656
I3095
sS'someday'
p5657
I5405
sS'smaller'
p5658
I4181
sS'gripping'
p5659
I2958
sS"you'd"
p5660
I1405
sS'wrestling'
p5661
I3639
sS'traveling'
p5662
I3832
sS'reunion'
p5663
I4063
sS'acid'
p5664
I5240
sS'makers'
p5665
I1387
sS'folk'
p5666
I4292
sS'showcase'
p5667
I4539
sS"man's"
p5668
I1590
sS'waiting'
p5669
I1042
sS'capital'
p5670
I5236
sS'nazis'
p5671
I3562
sS'chose'
p5672
I2446
sS'degree'
p5673
I2456
sS'pushing'
p5674
I4023
sS'youngest'
p5675
I5797
sS'desired'
p5676
I4474
sS'explore'
p5677
I3822
sS'sexy'
p5678
I1237
sS'survivor'
p5679
I5371
sS'larger'
p5680
I3709
sS'karloff'
p5681
I4840
sS'leaving'
p5682
I1169
sS'suggests'
p5683
I3048
sS'olivier'
p5684
I5946
sS'spy'
p5685
I2782
sS'hardy'
p5686
I3180
sS'duck'
p5687
I4870
sS'ape'
p5688
I5489
sS'fed'
p5689
I5002
sS'from'
p5690
I38
sS'hippie'
p5691
I5206
sS'usa'
p5692
I2751
sS'gere'
p5693
I5377
sS'few'
p5694
I172
sS'depicted'
p5695
I2324
sS'sort'
p5696
I425
sS'clever'
p5697
I1017
sS'musician'
p5698
I5232
sS'impress'
p5699
I4243
sS'columbo'
p5700
I2946
sS'rabbit'
p5701
I4368
sS'women'
p5702
I372
sS'1980s'
p5703
I3627
sS'anywhere'
p5704
I1665
sS'performed'
p5705
I2384
sS'tap'
p5706
I5380
sS'tad'
p5707
I4411
sS'villain'
p5708
I1046
sS'tag'
p5709
I4565
sS'something'
p5710
I141
sS'serial'
p5711
I1562
sS'rape'
p5712
I1720
sS'sir'
p5713
I2486
sS'united'
p5714
I2216
sS'syndrome'
p5715
I5656
sS'sit'
p5716
I846
sS'six'
p5717
I1514
sS'struggles'
p5718
I2964
sS'brian'
p5719
I1771
sS'instead'
p5720
I300
sS'panic'
p5721
I4820
sS'sin'
p5722
I3488
sS'tension'
p5723
I1076
sS'puppets'
p5724
I4373
sS'attend'
p5725
I5514
sS'masks'
p5726
I5777
sS'abuse'
p5727
I2442
sS'ethnic'
p5728
I5722
sS'light'
p5729
I706
sS'wwii'
p5730
I2803
sS'honestly'
p5731
I1189
sS'whilst'
p5732
I1749
sS'looks'
p5733
I285
sS'underwater'
p5734
I5147
sS'ships'
p5735
I5003
sS'nostalgia'
p5736
I4384
sS'nostalgic'
p5737
I4602
sS'tyler'
p5738
I4592
sS'choose'
p5739
I2095
sS'orange'
p5740
I5387
sS'covered'
p5741
I2513
sS'holiday'
p5742
I3124
sS'freeman'
p5743
I3352
sS'bumbling'
p5744
I4668
sS'crash'
p5745
I2198
sS'practice'
p5746
I4265
sS'ambition'
p5747
I5441
sS'worlds'
p5748
I3549
sS'profound'
p5749
I3189
sS'edit'
p5750
I5713
sS'feast'
p5751
I4521
sS'billy'
p5752
I1468
sS'trap'
p5753
I3244
sS'studios'
p5754
I2411
sS'spielberg'
p5755
I4330
sS'related'
p5756
I2873
sS'our'
p5757
I257
sS'80'
p5758
I3955
sS'out'
p5759
I47
sS'category'
p5760
I2445
sS'blues'
p5761
I3880
sS'chaos'
p5762
I3696
sS'performs'
p5763
I4754
sS'molly'
p5764
I5190
sS'york'
p5765
I854
sS'conflicts'
p5766
I4911
sS'philip'
p5767
I3305
sS'stupidity'
p5768
I2818
sS'g'
p5769
I3085
sS'conversation'
p5770
I2407
sS'hence'
p5771
I2862
sS'cinderella'
p5772
I3572
sS"doesn't"
p5773
I153
sS'unknown'
p5774
I1726
sS'accent'
p5775
I1170
sS'their'
p5776
I67
sS"god's"
p5777
I4475
sS'shelf'
p5778
I4307
sS'doomed'
p5779
I3938
sS'shallow'
p5780
I2057
sS'regards'
p5781
I5452
sS'boring'
p5782
I343
sS'tommy'
p5783
I2867
sS'patients'
p5784
I4406
sS'clip'
p5785
I5067
sS'splatter'
p5786
I4600
sS'teenagers'
p5787
I1963
sS'imdb'
p5788
I891
sS'catholic'
p5789
I3521
sS'afraid'
p5790
I1617
sS'angle'
p5791
I2761
sS'russians'
p5792
I5913
sS'agency'
p5793
I5693
sS'which'
p5794
I64
sS'martha'
p5795
I4050
sS'combat'
p5796
I3789
sS'who'
p5797
I39
sS'why'
p5798
I138
sS"husband's"
p5799
I5301
sS'refreshing'
p5800
I2474
sS'ensues'
p5801
I4591
sS'looked'
p5802
I581
sS'inane'
p5803
I4397
sS'ho'
p5804
I5812
sS'brenda'
p5805
I5886
sS'chances'
p5806
I3658
sS'agreed'
p5807
I4051
sS'purely'
p5808
I2804
sS'planning'
p5809
I3745
sS'dorothy'
p5810
I3701
sS'utter'
p5811
I1992
sS'chicken'
p5812
I4286
sS'feat'
p5813
I5905
sS'agrees'
p5814
I4241
sS'ha'
p5815
I2968
sS'surroundings'
p5816
I5689
sS'piano'
p5817
I3338
sS'thousands'
p5818
I2893
sS'cube'
p5819
I5082
sS'cuba'
p5820
I4964
sS'midnight'
p5821
I3099
sS'massacre'
p5822
I2659
sS'ones'
p5823
I658
sS'words'
p5824
I667
sS'ended'
p5825
I1018
sS'married'
p5826
I1038
sS'marries'
p5827
I5769
sS'generations'
p5828
I4802
sS'view'
p5829
I646
sS'knowing'
p5830
I1303
sS'inventive'
p5831
I4071
sS'merits'
p5832
I5337
sS'closer'
p5833
I2518
sS'welles'
p5834
I2826
sS'cole'
p5835
I3811
sS'closet'
p5836
I4275
sS'arguably'
p5837
I4715
sS'superb'
p5838
I894
sS'favor'
p5839
I1944
sS'fifties'
p5840
I5580
sS'closed'
p5841
I4120
sS'crude'
p5842
I2806
sS'rendition'
p5843
I3884
sS'brosnan'
p5844
I5968
sS'frustrated'
p5845
I3601
sS'pants'
p5846
I4006
sS'ability'
p5847
I1205
sS'opening'
p5848
I612
sS'joy'
p5849
I1742
sS'embarrassment'
p5850
I4489
sS'job'
p5851
I293
sS'joe'
p5852
I965
sS'spoil'
p5853
I2320
sS'jon'
p5854
I2923
sS'voight'
p5855
I5315
sS'piece'
p5856
I412
sS'profanity'
p5857
I5349
sS'april'
p5858
I4822
sS'unconvincing'
p5859
I2702
sS"1970's"
p5860
I4527
sS'wall'
p5861
I1680
sS'walk'
p5862
I1180
sS'walt'
p5863
I5857
sS'sequences'
p5864
I834
sS'table'
p5865
I2354
sS'i.e.'
p5866
I2168
sS'decent'
p5867
I539
sS'hunters'
p5868
I4927
sS'trademark'
p5869
I4989
sS'hindi'
p5870
I5300
sS'mike'
p5871
I1741
sS'painted'
p5872
I4322
sS'jaded'
p5873
I5672
sS'crappy'
p5874
I1883
sS'last'
p5875
I238
sS'reeves'
p5876
I5442
sS'present'
p5877
I1015
sS'abandoned'
p5878
I2526
sS'unlike'
p5879
I1013
sS'choices'
p5880
I2658
sS'will'
p5881
I82
sS'stunning'
p5882
I1388
sS'wild'
p5883
I1349
sS'supply'
p5884
I5671
sS'mutant'
p5885
I5678
sS'thus'
p5886
I1330
sS'gothic'
p5887
I3434
sS'perhaps'
p5888
I381
sS'cross'
p5889
I1990
sS'member'
p5890
I1615
sS'gets'
p5891
I217
sS'difficult'
p5892
I860
sS'spirited'
p5893
I5098
sS'slave'
p5894
I4835
sS'premiere'
p5895
I4585
sS'conceived'
p5896
I4575
sS'disagree'
p5897
I2973
sS'beast'
p5898
I2710
sS'cinematographer'
p5899
I4476
sS'student'
p5900
I1421
sS'ingredients'
p5901
I4447
sS'fighting'
p5902
I1003
sS'english'
p5903
I630
sS'firstly'
p5904
I4878
sS'realised'
p5905
I5247
sS'carrie'
p5906
I4260
sS'rocket'
p5907
I4729
sS'heavily'
p5908
I2653
sS"should've"
p5909
I5501
sS'wealthy'
p5910
I2981
sS'happiness'
p5911
I2868
sS'guts'
p5912
I3245
sS'sky'
p5913
I2252
sS'discuss'
p5914
I4262
sS'book'
p5915
I280
sS'attractive'
p5916
I1530
sS'smart'
p5917
I1329
sS'bela'
p5918
I5317
sS'identical'
p5919
I5622
sS'captivating'
p5920
I4065
sS'myth'
p5921
I5537
sS"who's"
p5922
I858
sS'know'
p5923
I121
sS'facial'
p5924
I2766
sS'press'
p5925
I3560
sS'hollow'
p5926
I4186
sS'10/10'
p5927
I1921
sS'helpful'
p5928
I5826
sS'loser'
p5929
I3460
sS'loses'
p5930
I2152
sS'starred'
p5931
I2861
sS'wonders'
p5932
I3485
sS'because'
p5933
I88
sS'sequence'
p5934
I701
sS'scared'
p5935
I1752
sS'scottish'
p5936
I4812
sS'searching'
p5937
I3050
sS'empire'
p5938
I3987
sS'scares'
p5939
I2725
sS'jeremy'
p5940
I3623
sS'lead'
p5941
I470
sS'leader'
p5942
I1782
sS'rip-off'
p5943
I3275
sS'ripped'
p5944
I3163
sS'murderer'
p5945
I2715
sS'murdered'
p5946
I1867
sS'rare'
p5947
I1317
sS'carried'
p5948
I2823
sS'getting'
p5949
I379
sS'universe'
p5950
I2303
sS'carries'
p5951
I2844
sS'swear'
p5952
I3754
sS'emperor'
p5953
I4500
sS'unlikable'
p5954
I5391
sS'own'
p5955
I200
sS'polished'
p5956
I5323
sS'wilderness'
p5957
I5490
sS'weather'
p5958
I5683
sS'promise'
p5959
I2133
sS'brilliantly'
p5960
I2121
sS'van'
p5961
I1058
sS'transfer'
p5962
I4724
sS'*'
p5963
I1980
sS'kidding'
p5964
I3839
sS'intention'
p5965
I3386
sS"i've"
p5966
I207
sS'volume'
p5967
I5927
sS'selfish'
p5968
I4073
sS'made'
p5969
I97
sS'tactics'
p5970
I5965
sS'whether'
p5971
I709
sS'record'
p5972
I1853
sS'below'
p5973
I1834
sS'cake'
p5974
I4560
sS'non-existent'
p5975
I3594
sS'jenny'
p5976
I5406
sS'horrific'
p5977
I2986
sS'buffs'
p5978
I4621
sS'meaningless'
p5979
I3835
sS'goodness'
p5980
I3787
sS'narrator'
p5981
I4033
sS'incredible'
p5982
I1047
sS'boot'
p5983
I3910
sS'other'
p5984
I81
sS'boom'
p5985
I5253
sS'sick'
p5986
I1146
sS'incredibly'
p5987
I930
sS'conclusion'
p5988
I1195
sS'lance'
p5989
I5381
sS'junk'
p5990
I2523
sS'kinds'
p5991
I2719
sS'june'
p5992
I4721
sS'margaret'
p5993
I4283
sS'kinda'
p5994
I1916
sS'sandler'
p5995
I4490
sS'cliff'
p5996
I4445
sS'insipid'
p5997
I5630
sS'ranks'
p5998
I3566
sS'jewel'
p5999
I5134
sS'intentionally'
p6000
I4855
sS'richardson'
p6001
I5842
sS'irony'
p6002
I3162
s.